
FSM.elf:     file format elf32-avr

Sections:
Idx Name          Size      VMA       LMA       File off  Algn
  0 .data         000002bc  00800100  000027c4  00002858  2**0
                  CONTENTS, ALLOC, LOAD, DATA
  1 .text         000027c4  00000000  00000000  00000094  2**1
                  CONTENTS, ALLOC, LOAD, READONLY, CODE
  2 .bss          00000037  008003bc  008003bc  00002b14  2**0
                  ALLOC
  3 .comment      0000005c  00000000  00000000  00002b14  2**0
                  CONTENTS, READONLY
  4 .note.gnu.avr.deviceinfo 00000040  00000000  00000000  00002b70  2**2
                  CONTENTS, READONLY
  5 .debug_aranges 00000278  00000000  00000000  00002bb0  2**0
                  CONTENTS, READONLY, DEBUGGING
  6 .debug_info   00004cb8  00000000  00000000  00002e28  2**0
                  CONTENTS, READONLY, DEBUGGING
  7 .debug_abbrev 000012da  00000000  00000000  00007ae0  2**0
                  CONTENTS, READONLY, DEBUGGING
  8 .debug_line   00001a29  00000000  00000000  00008dba  2**0
                  CONTENTS, READONLY, DEBUGGING
  9 .debug_frame  000007e4  00000000  00000000  0000a7e4  2**2
                  CONTENTS, READONLY, DEBUGGING
 10 .debug_str    00000f4a  00000000  00000000  0000afc8  2**0
                  CONTENTS, READONLY, DEBUGGING
 11 .debug_loc    0000250e  00000000  00000000  0000bf12  2**0
                  CONTENTS, READONLY, DEBUGGING
 12 .debug_ranges 00000208  00000000  00000000  0000e420  2**0
                  CONTENTS, READONLY, DEBUGGING

Disassembly of section .text:

00000000 <__vectors>:
       0:	0c 94 5a 00 	jmp	0xb4	; 0xb4 <__dtors_end>
       4:	0c 94 87 09 	jmp	0x130e	; 0x130e <__vector_1>
       8:	0c 94 c6 09 	jmp	0x138c	; 0x138c <__vector_2>
       c:	0c 94 82 00 	jmp	0x104	; 0x104 <__bad_interrupt>
      10:	0c 94 82 00 	jmp	0x104	; 0x104 <__bad_interrupt>
      14:	0c 94 82 00 	jmp	0x104	; 0x104 <__bad_interrupt>
      18:	0c 94 82 00 	jmp	0x104	; 0x104 <__bad_interrupt>
      1c:	0c 94 82 00 	jmp	0x104	; 0x104 <__bad_interrupt>
      20:	0c 94 82 00 	jmp	0x104	; 0x104 <__bad_interrupt>
      24:	0c 94 82 00 	jmp	0x104	; 0x104 <__bad_interrupt>
      28:	0c 94 82 00 	jmp	0x104	; 0x104 <__bad_interrupt>
      2c:	0c 94 82 00 	jmp	0x104	; 0x104 <__bad_interrupt>
      30:	0c 94 82 00 	jmp	0x104	; 0x104 <__bad_interrupt>
      34:	0c 94 62 0a 	jmp	0x14c4	; 0x14c4 <__vector_13>
      38:	0c 94 82 00 	jmp	0x104	; 0x104 <__bad_interrupt>
      3c:	0c 94 82 00 	jmp	0x104	; 0x104 <__bad_interrupt>
      40:	0c 94 a3 0a 	jmp	0x1546	; 0x1546 <__vector_16>
      44:	0c 94 82 00 	jmp	0x104	; 0x104 <__bad_interrupt>
      48:	0c 94 09 0a 	jmp	0x1412	; 0x1412 <__vector_18>
      4c:	0c 94 82 00 	jmp	0x104	; 0x104 <__bad_interrupt>
      50:	0c 94 82 00 	jmp	0x104	; 0x104 <__bad_interrupt>
      54:	0c 94 82 00 	jmp	0x104	; 0x104 <__bad_interrupt>
      58:	0c 94 82 00 	jmp	0x104	; 0x104 <__bad_interrupt>
      5c:	0c 94 82 00 	jmp	0x104	; 0x104 <__bad_interrupt>
      60:	0c 94 82 00 	jmp	0x104	; 0x104 <__bad_interrupt>
      64:	0c 94 82 00 	jmp	0x104	; 0x104 <__bad_interrupt>
      68:	be 00       	.word	0x00be	; ????
      6a:	cb 00       	.word	0x00cb	; ????
      6c:	d8 00       	.word	0x00d8	; ????
      6e:	e5 00       	.word	0x00e5	; ????
      70:	f2 00       	.word	0x00f2	; ????
      72:	ff 00       	.word	0x00ff	; ????
      74:	0c 01       	movw	r0, r24
      76:	19 01       	movw	r2, r18
      78:	60 03       	mulsu	r22, r16
      7a:	a0 03       	fmuls	r18, r16
      7c:	fb 03       	fmulsu	r23, r19
      7e:	72 04       	cpc	r7, r2
      80:	b2 04       	cpc	r11, r2
      82:	0d 05       	cpc	r16, r13
      84:	4d 05       	cpc	r20, r13
      86:	49 07       	cpc	r20, r25
      88:	4e 07       	cpc	r20, r30
      8a:	57 07       	cpc	r21, r23
      8c:	64 07       	cpc	r22, r20
      8e:	69 07       	cpc	r22, r25
      90:	72 07       	cpc	r23, r18
      92:	77 07       	cpc	r23, r23
      94:	b5 07       	cpc	r27, r21
      96:	c9 07       	cpc	r28, r25
      98:	dd 07       	cpc	r29, r29
      9a:	f1 07       	cpc	r31, r17
      9c:	05 08       	sbc	r0, r5
      9e:	19 08       	sbc	r1, r9
      a0:	2d 08       	sbc	r2, r13
      a2:	f3 0a       	sbc	r15, r19
      a4:	fa 0a       	sbc	r15, r26
      a6:	01 0b       	sbc	r16, r17
      a8:	08 0b       	sbc	r16, r24
      aa:	0f 0b       	sbc	r16, r31
      ac:	16 0b       	sbc	r17, r22
      ae:	1d 0b       	sbc	r17, r29

000000b0 <__ctors_start>:
      b0:	32 0d       	add	r19, r2

000000b2 <__ctors_end>:
      b2:	39 0d       	add	r19, r9

000000b4 <__dtors_end>:
      b4:	11 24       	eor	r1, r1
      b6:	1f be       	out	0x3f, r1	; 63
      b8:	cf ef       	ldi	r28, 0xFF	; 255
      ba:	d8 e0       	ldi	r29, 0x08	; 8
      bc:	de bf       	out	0x3e, r29	; 62
      be:	cd bf       	out	0x3d, r28	; 61

000000c0 <__do_copy_data>:
      c0:	13 e0       	ldi	r17, 0x03	; 3
      c2:	a0 e0       	ldi	r26, 0x00	; 0
      c4:	b1 e0       	ldi	r27, 0x01	; 1
      c6:	e4 ec       	ldi	r30, 0xC4	; 196
      c8:	f7 e2       	ldi	r31, 0x27	; 39
      ca:	02 c0       	rjmp	.+4      	; 0xd0 <__do_copy_data+0x10>
      cc:	05 90       	lpm	r0, Z+
      ce:	0d 92       	st	X+, r0
      d0:	ac 3b       	cpi	r26, 0xBC	; 188
      d2:	b1 07       	cpc	r27, r17
      d4:	d9 f7       	brne	.-10     	; 0xcc <__do_copy_data+0xc>

000000d6 <__do_clear_bss>:
      d6:	23 e0       	ldi	r18, 0x03	; 3
      d8:	ac eb       	ldi	r26, 0xBC	; 188
      da:	b3 e0       	ldi	r27, 0x03	; 3
      dc:	01 c0       	rjmp	.+2      	; 0xe0 <.do_clear_bss_start>

000000de <.do_clear_bss_loop>:
      de:	1d 92       	st	X+, r1

000000e0 <.do_clear_bss_start>:
      e0:	a3 3f       	cpi	r26, 0xF3	; 243
      e2:	b2 07       	cpc	r27, r18
      e4:	e1 f7       	brne	.-8      	; 0xde <.do_clear_bss_loop>

000000e6 <__do_global_ctors>:
      e6:	10 e0       	ldi	r17, 0x00	; 0
      e8:	c9 e5       	ldi	r28, 0x59	; 89
      ea:	d0 e0       	ldi	r29, 0x00	; 0
      ec:	04 c0       	rjmp	.+8      	; 0xf6 <__do_global_ctors+0x10>
      ee:	21 97       	sbiw	r28, 0x01	; 1
      f0:	fe 01       	movw	r30, r28
      f2:	0e 94 e5 10 	call	0x21ca	; 0x21ca <__tablejump2__>
      f6:	c8 35       	cpi	r28, 0x58	; 88
      f8:	d1 07       	cpc	r29, r17
      fa:	c9 f7       	brne	.-14     	; 0xee <__do_global_ctors+0x8>
      fc:	0e 94 8e 0b 	call	0x171c	; 0x171c <main>
     100:	0c 94 d5 13 	jmp	0x27aa	; 0x27aa <__do_global_dtors>

00000104 <__bad_interrupt>:
     104:	0c 94 00 00 	jmp	0	; 0x0 <__vectors>

00000108 <_ZN11Display7segC1Ev>:
 *  Author: Fernando Kirchner
 */ 

#include "display7seg.h"

Display7seg::Display7seg()
     108:	08 95       	ret

0000010a <_ZN11Display7segD1Ev>:
{
	//ctor
}

Display7seg::~Display7seg()
     10a:	08 95       	ret

0000010c <_ZN11Display7seg13attachToPortsEhhhh>:
{
	//dtor
}

void Display7seg::attachToPorts(unsigned char d0, unsigned char d1, unsigned char d2, unsigned char d3)
{
     10c:	0f 93       	push	r16
	set_bit(DDRC, d0);
     10e:	37 b1       	in	r19, 0x07	; 7
     110:	81 e0       	ldi	r24, 0x01	; 1
     112:	90 e0       	ldi	r25, 0x00	; 0
     114:	fc 01       	movw	r30, r24
     116:	02 c0       	rjmp	.+4      	; 0x11c <_ZN11Display7seg13attachToPortsEhhhh+0x10>
     118:	ee 0f       	add	r30, r30
     11a:	ff 1f       	adc	r31, r31
     11c:	6a 95       	dec	r22
     11e:	e2 f7       	brpl	.-8      	; 0x118 <_ZN11Display7seg13attachToPortsEhhhh+0xc>
     120:	bf 01       	movw	r22, r30
     122:	63 2b       	or	r22, r19
     124:	67 b9       	out	0x07, r22	; 7
	set_bit(DDRC, d1);
     126:	37 b1       	in	r19, 0x07	; 7
     128:	bc 01       	movw	r22, r24
     12a:	02 c0       	rjmp	.+4      	; 0x130 <_ZN11Display7seg13attachToPortsEhhhh+0x24>
     12c:	66 0f       	add	r22, r22
     12e:	77 1f       	adc	r23, r23
     130:	4a 95       	dec	r20
     132:	e2 f7       	brpl	.-8      	; 0x12c <_ZN11Display7seg13attachToPortsEhhhh+0x20>
     134:	ab 01       	movw	r20, r22
     136:	43 2b       	or	r20, r19
     138:	47 b9       	out	0x07, r20	; 7
	set_bit(DDRC, d2);
     13a:	47 b1       	in	r20, 0x07	; 7
     13c:	fc 01       	movw	r30, r24
     13e:	02 c0       	rjmp	.+4      	; 0x144 <_ZN11Display7seg13attachToPortsEhhhh+0x38>
     140:	ee 0f       	add	r30, r30
     142:	ff 1f       	adc	r31, r31
     144:	2a 95       	dec	r18
     146:	e2 f7       	brpl	.-8      	; 0x140 <_ZN11Display7seg13attachToPortsEhhhh+0x34>
     148:	9f 01       	movw	r18, r30
     14a:	24 2b       	or	r18, r20
     14c:	27 b9       	out	0x07, r18	; 7
	set_bit(DDRC, d3);
     14e:	27 b1       	in	r18, 0x07	; 7
     150:	02 c0       	rjmp	.+4      	; 0x156 <_ZN11Display7seg13attachToPortsEhhhh+0x4a>
     152:	88 0f       	add	r24, r24
     154:	99 1f       	adc	r25, r25
     156:	0a 95       	dec	r16
     158:	e2 f7       	brpl	.-8      	; 0x152 <_ZN11Display7seg13attachToPortsEhhhh+0x46>
     15a:	82 2b       	or	r24, r18
     15c:	87 b9       	out	0x07, r24	; 7
}
     15e:	0f 91       	pop	r16
     160:	08 95       	ret

00000162 <_ZN11Display7seg13updateDisplayEPVh>:

void Display7seg::updateDisplay(volatile unsigned char *num)
{
	switch(*num){
     162:	db 01       	movw	r26, r22
     164:	ec 91       	ld	r30, X
     166:	8e 2f       	mov	r24, r30
     168:	90 e0       	ldi	r25, 0x00	; 0
     16a:	88 30       	cpi	r24, 0x08	; 8
     16c:	91 05       	cpc	r25, r1
     16e:	08 f0       	brcs	.+2      	; 0x172 <_ZN11Display7seg13updateDisplayEPVh+0x10>
     170:	6c c0       	rjmp	.+216    	; 0x24a <_ZN11Display7seg13updateDisplayEPVh+0xe8>
     172:	fc 01       	movw	r30, r24
     174:	ec 5c       	subi	r30, 0xCC	; 204
     176:	ff 4f       	sbci	r31, 0xFF	; 255
     178:	0c 94 e5 10 	jmp	0x21ca	; 0x21ca <__tablejump2__>
		case 0:
		clr_bit(PORTC, PORTC0);
     17c:	88 b1       	in	r24, 0x08	; 8
     17e:	8e 7f       	andi	r24, 0xFE	; 254
     180:	88 b9       	out	0x08, r24	; 8
		clr_bit(PORTC, PORTC1);
     182:	88 b1       	in	r24, 0x08	; 8
     184:	8d 7f       	andi	r24, 0xFD	; 253
     186:	88 b9       	out	0x08, r24	; 8
		clr_bit(PORTC, PORTC2);
     188:	88 b1       	in	r24, 0x08	; 8
     18a:	8b 7f       	andi	r24, 0xFB	; 251
     18c:	88 b9       	out	0x08, r24	; 8
		clr_bit(PORTC, PORTC3);
     18e:	88 b1       	in	r24, 0x08	; 8
     190:	87 7f       	andi	r24, 0xF7	; 247
     192:	88 b9       	out	0x08, r24	; 8
		break;
     194:	08 95       	ret
		
		case 1:
		set_bit(PORTC, PORTC0);
     196:	88 b1       	in	r24, 0x08	; 8
     198:	81 60       	ori	r24, 0x01	; 1
     19a:	88 b9       	out	0x08, r24	; 8
		clr_bit(PORTC, PORTC1);
     19c:	88 b1       	in	r24, 0x08	; 8
     19e:	8d 7f       	andi	r24, 0xFD	; 253
     1a0:	88 b9       	out	0x08, r24	; 8
		clr_bit(PORTC, PORTC2);
     1a2:	88 b1       	in	r24, 0x08	; 8
     1a4:	8b 7f       	andi	r24, 0xFB	; 251
     1a6:	88 b9       	out	0x08, r24	; 8
		clr_bit(PORTC, PORTC3);
     1a8:	88 b1       	in	r24, 0x08	; 8
     1aa:	87 7f       	andi	r24, 0xF7	; 247
     1ac:	88 b9       	out	0x08, r24	; 8
		break;
     1ae:	08 95       	ret
		
		case 2:
		clr_bit(PORTC, PORTC0);
     1b0:	88 b1       	in	r24, 0x08	; 8
     1b2:	8e 7f       	andi	r24, 0xFE	; 254
     1b4:	88 b9       	out	0x08, r24	; 8
		set_bit(PORTC, PORTC1);
     1b6:	88 b1       	in	r24, 0x08	; 8
     1b8:	82 60       	ori	r24, 0x02	; 2
     1ba:	88 b9       	out	0x08, r24	; 8
		clr_bit(PORTC, PORTC2);
     1bc:	88 b1       	in	r24, 0x08	; 8
     1be:	8b 7f       	andi	r24, 0xFB	; 251
     1c0:	88 b9       	out	0x08, r24	; 8
		clr_bit(PORTC, PORTC3);
     1c2:	88 b1       	in	r24, 0x08	; 8
     1c4:	87 7f       	andi	r24, 0xF7	; 247
     1c6:	88 b9       	out	0x08, r24	; 8
		break;
     1c8:	08 95       	ret
		
		case 3:
		set_bit(PORTC, PORTC0);
     1ca:	88 b1       	in	r24, 0x08	; 8
     1cc:	81 60       	ori	r24, 0x01	; 1
     1ce:	88 b9       	out	0x08, r24	; 8
		set_bit(PORTC, PORTC1);
     1d0:	88 b1       	in	r24, 0x08	; 8
     1d2:	82 60       	ori	r24, 0x02	; 2
     1d4:	88 b9       	out	0x08, r24	; 8
		clr_bit(PORTC, PORTC2);
     1d6:	88 b1       	in	r24, 0x08	; 8
     1d8:	8b 7f       	andi	r24, 0xFB	; 251
     1da:	88 b9       	out	0x08, r24	; 8
		clr_bit(PORTC, PORTC3);
     1dc:	88 b1       	in	r24, 0x08	; 8
     1de:	87 7f       	andi	r24, 0xF7	; 247
     1e0:	88 b9       	out	0x08, r24	; 8
		break;
     1e2:	08 95       	ret
		
		case 4:
		clr_bit(PORTC, PORTC0);
     1e4:	88 b1       	in	r24, 0x08	; 8
     1e6:	8e 7f       	andi	r24, 0xFE	; 254
     1e8:	88 b9       	out	0x08, r24	; 8
		clr_bit(PORTC, PORTC1);
     1ea:	88 b1       	in	r24, 0x08	; 8
     1ec:	8d 7f       	andi	r24, 0xFD	; 253
     1ee:	88 b9       	out	0x08, r24	; 8
		set_bit(PORTC, PORTC2);
     1f0:	88 b1       	in	r24, 0x08	; 8
     1f2:	84 60       	ori	r24, 0x04	; 4
     1f4:	88 b9       	out	0x08, r24	; 8
		clr_bit(PORTC, PORTC3);
     1f6:	88 b1       	in	r24, 0x08	; 8
     1f8:	87 7f       	andi	r24, 0xF7	; 247
     1fa:	88 b9       	out	0x08, r24	; 8
		break;
     1fc:	08 95       	ret
		
		case 5:
		set_bit(PORTC, PORTC0);
     1fe:	88 b1       	in	r24, 0x08	; 8
     200:	81 60       	ori	r24, 0x01	; 1
     202:	88 b9       	out	0x08, r24	; 8
		clr_bit(PORTC, PORTC1);
     204:	88 b1       	in	r24, 0x08	; 8
     206:	8d 7f       	andi	r24, 0xFD	; 253
     208:	88 b9       	out	0x08, r24	; 8
		set_bit(PORTC, PORTC2);
     20a:	88 b1       	in	r24, 0x08	; 8
     20c:	84 60       	ori	r24, 0x04	; 4
     20e:	88 b9       	out	0x08, r24	; 8
		clr_bit(PORTC, PORTC3);
     210:	88 b1       	in	r24, 0x08	; 8
     212:	87 7f       	andi	r24, 0xF7	; 247
     214:	88 b9       	out	0x08, r24	; 8
		break;
     216:	08 95       	ret
		
		case 6:
		clr_bit(PORTC, PORTC0);
     218:	88 b1       	in	r24, 0x08	; 8
     21a:	8e 7f       	andi	r24, 0xFE	; 254
     21c:	88 b9       	out	0x08, r24	; 8
		set_bit(PORTC, PORTC1);
     21e:	88 b1       	in	r24, 0x08	; 8
     220:	82 60       	ori	r24, 0x02	; 2
     222:	88 b9       	out	0x08, r24	; 8
		set_bit(PORTC, PORTC2);
     224:	88 b1       	in	r24, 0x08	; 8
     226:	84 60       	ori	r24, 0x04	; 4
     228:	88 b9       	out	0x08, r24	; 8
		clr_bit(PORTC, PORTC3);
     22a:	88 b1       	in	r24, 0x08	; 8
     22c:	87 7f       	andi	r24, 0xF7	; 247
     22e:	88 b9       	out	0x08, r24	; 8
		break;
     230:	08 95       	ret
		
		case 7:
		set_bit(PORTC, PORTC0);
     232:	88 b1       	in	r24, 0x08	; 8
     234:	81 60       	ori	r24, 0x01	; 1
     236:	88 b9       	out	0x08, r24	; 8
		set_bit(PORTC, PORTC1);
     238:	88 b1       	in	r24, 0x08	; 8
     23a:	82 60       	ori	r24, 0x02	; 2
     23c:	88 b9       	out	0x08, r24	; 8
		set_bit(PORTC, PORTC2);
     23e:	88 b1       	in	r24, 0x08	; 8
     240:	84 60       	ori	r24, 0x04	; 4
     242:	88 b9       	out	0x08, r24	; 8
		clr_bit(PORTC, PORTC3);
     244:	88 b1       	in	r24, 0x08	; 8
     246:	87 7f       	andi	r24, 0xF7	; 247
     248:	88 b9       	out	0x08, r24	; 8
     24a:	08 95       	ret

0000024c <_ZN10DrinkMakerC1Ev>:
	motor.turnOn();
}

void DrinkMaker::stopMilling()
{
	motor.turnOff();
     24c:	af 92       	push	r10
     24e:	bf 92       	push	r11
     250:	cf 92       	push	r12
     252:	df 92       	push	r13
     254:	ef 92       	push	r14
     256:	ff 92       	push	r15
     258:	0f 93       	push	r16
     25a:	1f 93       	push	r17
     25c:	cf 93       	push	r28
     25e:	df 93       	push	r29
     260:	ec 01       	movw	r28, r24
     262:	02 96       	adiw	r24, 0x02	; 2
     264:	0e 94 19 0e 	call	0x1c32	; 0x1c32 <_ZN6SerialC1Ev>
     268:	8e 01       	movw	r16, r28
     26a:	09 5f       	subi	r16, 0xF9	; 249
     26c:	1f 4f       	sbci	r17, 0xFF	; 255
     26e:	c8 01       	movw	r24, r16
     270:	0e 94 40 0d 	call	0x1a80	; 0x1a80 <_ZN5MotorC1Ev>
     274:	5e 01       	movw	r10, r28
     276:	88 e0       	ldi	r24, 0x08	; 8
     278:	a8 0e       	add	r10, r24
     27a:	b1 1c       	adc	r11, r1
     27c:	c5 01       	movw	r24, r10
     27e:	0e 94 83 0e 	call	0x1d06	; 0x1d06 <_ZN5ValveC1Ev>
     282:	6e 01       	movw	r12, r28
     284:	8a e0       	ldi	r24, 0x0A	; 10
     286:	c8 0e       	add	r12, r24
     288:	d1 1c       	adc	r13, r1
     28a:	c6 01       	movw	r24, r12
     28c:	0e 94 83 0e 	call	0x1d06	; 0x1d06 <_ZN5ValveC1Ev>
     290:	7e 01       	movw	r14, r28
     292:	8c e0       	ldi	r24, 0x0C	; 12
     294:	e8 0e       	add	r14, r24
     296:	f1 1c       	adc	r15, r1
     298:	c7 01       	movw	r24, r14
     29a:	0e 94 83 0e 	call	0x1d06	; 0x1d06 <_ZN5ValveC1Ev>
     29e:	ce 01       	movw	r24, r28
     2a0:	0e 96       	adiw	r24, 0x0e	; 14
     2a2:	0e 94 43 08 	call	0x1086	; 0x1086 <_ZN3LCDC1Ev>
     2a6:	1c 8e       	std	Y+28, r1	; 0x1c
     2a8:	1d 8e       	std	Y+29, r1	; 0x1d
     2aa:	1e 8e       	std	Y+30, r1	; 0x1e
     2ac:	1f 8e       	std	Y+31, r1	; 0x1f
     2ae:	1f 86       	std	Y+15, r1	; 0x0f
     2b0:	18 8a       	std	Y+16, r1	; 0x10
     2b2:	19 8a       	std	Y+17, r1	; 0x11
     2b4:	1a 8a       	std	Y+18, r1	; 0x12
     2b6:	1b 8a       	std	Y+19, r1	; 0x13
     2b8:	1c 8a       	std	Y+20, r1	; 0x14
     2ba:	1d 8a       	std	Y+21, r1	; 0x15
     2bc:	1e 8a       	std	Y+22, r1	; 0x16
     2be:	1f 8a       	std	Y+23, r1	; 0x17
     2c0:	18 8e       	std	Y+24, r1	; 0x18
     2c2:	19 8e       	std	Y+25, r1	; 0x19
     2c4:	1a 8e       	std	Y+26, r1	; 0x1a
     2c6:	1b 8e       	std	Y+27, r1	; 0x1b
     2c8:	62 e0       	ldi	r22, 0x02	; 2
     2ca:	c5 01       	movw	r24, r10
     2cc:	0e 94 85 0e 	call	0x1d0a	; 0x1d0a <_ZN5Valve12attachToPortEh>
     2d0:	64 e0       	ldi	r22, 0x04	; 4
     2d2:	c6 01       	movw	r24, r12
     2d4:	0e 94 85 0e 	call	0x1d0a	; 0x1d0a <_ZN5Valve12attachToPortEh>
     2d8:	65 e0       	ldi	r22, 0x05	; 5
     2da:	c7 01       	movw	r24, r14
     2dc:	0e 94 85 0e 	call	0x1d0a	; 0x1d0a <_ZN5Valve12attachToPortEh>
     2e0:	c8 01       	movw	r24, r16
     2e2:	0e 94 42 0d 	call	0x1a84	; 0x1a84 <_ZN5Motor5setupEv>
     2e6:	df 91       	pop	r29
     2e8:	cf 91       	pop	r28
     2ea:	1f 91       	pop	r17
     2ec:	0f 91       	pop	r16
     2ee:	ff 90       	pop	r15
     2f0:	ef 90       	pop	r14
     2f2:	df 90       	pop	r13
     2f4:	cf 90       	pop	r12
     2f6:	bf 90       	pop	r11
     2f8:	af 90       	pop	r10
     2fa:	08 95       	ret

000002fc <_ZN10DrinkMakerD1Ev>:
     2fc:	cf 93       	push	r28
     2fe:	df 93       	push	r29
     300:	ec 01       	movw	r28, r24
     302:	0e 96       	adiw	r24, 0x0e	; 14
     304:	0e 94 56 08 	call	0x10ac	; 0x10ac <_ZN3LCDD1Ev>
     308:	ce 01       	movw	r24, r28
     30a:	0c 96       	adiw	r24, 0x0c	; 12
     30c:	0e 94 84 0e 	call	0x1d08	; 0x1d08 <_ZN5ValveD1Ev>
     310:	ce 01       	movw	r24, r28
     312:	0a 96       	adiw	r24, 0x0a	; 10
     314:	0e 94 84 0e 	call	0x1d08	; 0x1d08 <_ZN5ValveD1Ev>
     318:	ce 01       	movw	r24, r28
     31a:	08 96       	adiw	r24, 0x08	; 8
     31c:	0e 94 84 0e 	call	0x1d08	; 0x1d08 <_ZN5ValveD1Ev>
     320:	ce 01       	movw	r24, r28
     322:	07 96       	adiw	r24, 0x07	; 7
     324:	0e 94 41 0d 	call	0x1a82	; 0x1a82 <_ZN5MotorD1Ev>
     328:	ce 01       	movw	r24, r28
     32a:	02 96       	adiw	r24, 0x02	; 2
     32c:	0e 94 56 0d 	call	0x1aac	; 0x1aac <_ZN6SerialD1Ev>
     330:	df 91       	pop	r29
     332:	cf 91       	pop	r28
     334:	08 95       	ret

00000336 <_ZN10DrinkMaker6refuelEv>:
     336:	cf 93       	push	r28
     338:	df 93       	push	r29
     33a:	fc 01       	movw	r30, r24
     33c:	80 e0       	ldi	r24, 0x00	; 0
     33e:	90 e0       	ldi	r25, 0x00	; 0
     340:	a0 e2       	ldi	r26, 0x20	; 32
     342:	b1 e4       	ldi	r27, 0x41	; 65
     344:	87 87       	std	Z+15, r24	; 0x0f
     346:	90 8b       	std	Z+16, r25	; 0x10
     348:	a1 8b       	std	Z+17, r26	; 0x11
     34a:	b2 8b       	std	Z+18, r27	; 0x12
     34c:	80 e0       	ldi	r24, 0x00	; 0
     34e:	90 e0       	ldi	r25, 0x00	; 0
     350:	a0 ea       	ldi	r26, 0xA0	; 160
     352:	b0 e4       	ldi	r27, 0x40	; 64
     354:	83 8b       	std	Z+19, r24	; 0x13
     356:	94 8b       	std	Z+20, r25	; 0x14
     358:	a5 8b       	std	Z+21, r26	; 0x15
     35a:	b6 8b       	std	Z+22, r27	; 0x16
     35c:	80 e0       	ldi	r24, 0x00	; 0
     35e:	90 e0       	ldi	r25, 0x00	; 0
     360:	a0 ee       	ldi	r26, 0xE0	; 224
     362:	b0 e4       	ldi	r27, 0x40	; 64
     364:	87 8b       	std	Z+23, r24	; 0x17
     366:	90 8f       	std	Z+24, r25	; 0x18
     368:	a1 8f       	std	Z+25, r26	; 0x19
     36a:	b2 8f       	std	Z+26, r27	; 0x1a
     36c:	14 8e       	std	Z+28, r1	; 0x1c
     36e:	15 8e       	std	Z+29, r1	; 0x1d
     370:	16 8e       	std	Z+30, r1	; 0x1e
     372:	17 8e       	std	Z+31, r1	; 0x1f
     374:	ef 01       	movw	r28, r30
     376:	22 96       	adiw	r28, 0x02	; 2
     378:	60 e0       	ldi	r22, 0x00	; 0
     37a:	71 e0       	ldi	r23, 0x01	; 1
     37c:	ce 01       	movw	r24, r28
     37e:	0e 94 42 0e 	call	0x1c84	; 0x1c84 <_ZN6Serial8transmitEPc>
     382:	6d e0       	ldi	r22, 0x0D	; 13
     384:	ce 01       	movw	r24, r28
     386:	0e 94 4f 0e 	call	0x1c9e	; 0x1c9e <_ZN6Serial12transmitCharEc>
     38a:	df 91       	pop	r29
     38c:	cf 91       	pop	r28
     38e:	08 95       	ret

00000390 <_ZN10DrinkMaker21show_avaliable_drinksEv>:
     390:	4f 92       	push	r4
     392:	5f 92       	push	r5
     394:	6f 92       	push	r6
     396:	7f 92       	push	r7
     398:	8f 92       	push	r8
     39a:	9f 92       	push	r9
     39c:	af 92       	push	r10
     39e:	bf 92       	push	r11
     3a0:	cf 92       	push	r12
     3a2:	df 92       	push	r13
     3a4:	ef 92       	push	r14
     3a6:	ff 92       	push	r15
     3a8:	0f 93       	push	r16
     3aa:	1f 93       	push	r17
     3ac:	cf 93       	push	r28
     3ae:	df 93       	push	r29
     3b0:	cd b7       	in	r28, 0x3d	; 61
     3b2:	de b7       	in	r29, 0x3e	; 62
     3b4:	2a 97       	sbiw	r28, 0x0a	; 10
     3b6:	0f b6       	in	r0, 0x3f	; 63
     3b8:	f8 94       	cli
     3ba:	de bf       	out	0x3e, r29	; 62
     3bc:	0f be       	out	0x3f, r0	; 63
     3be:	cd bf       	out	0x3d, r28	; 61
     3c0:	7c 01       	movw	r14, r24
     3c2:	fc 01       	movw	r30, r24
     3c4:	13 8e       	std	Z+27, r1	; 0x1b
     3c6:	87 84       	ldd	r8, Z+15	; 0x0f
     3c8:	90 88       	ldd	r9, Z+16	; 0x10
     3ca:	a1 88       	ldd	r10, Z+17	; 0x11
     3cc:	b2 88       	ldd	r11, Z+18	; 0x12
     3ce:	20 e0       	ldi	r18, 0x00	; 0
     3d0:	30 e0       	ldi	r19, 0x00	; 0
     3d2:	40 e8       	ldi	r20, 0x80	; 128
     3d4:	5f e3       	ldi	r21, 0x3F	; 63
     3d6:	c5 01       	movw	r24, r10
     3d8:	b4 01       	movw	r22, r8
     3da:	0e 94 e1 0f 	call	0x1fc2	; 0x1fc2 <__gesf2>
     3de:	88 23       	and	r24, r24
     3e0:	1c f0       	brlt	.+6      	; 0x3e8 <_ZN10DrinkMaker21show_avaliable_drinksEv+0x58>
     3e2:	81 e0       	ldi	r24, 0x01	; 1
     3e4:	f7 01       	movw	r30, r14
     3e6:	83 8f       	std	Z+27, r24	; 0x1b
     3e8:	20 e0       	ldi	r18, 0x00	; 0
     3ea:	30 e0       	ldi	r19, 0x00	; 0
     3ec:	40 e0       	ldi	r20, 0x00	; 0
     3ee:	5f e3       	ldi	r21, 0x3F	; 63
     3f0:	c5 01       	movw	r24, r10
     3f2:	b4 01       	movw	r22, r8
     3f4:	0e 94 e1 0f 	call	0x1fc2	; 0x1fc2 <__gesf2>
     3f8:	88 23       	and	r24, r24
     3fa:	8c f0       	brlt	.+34     	; 0x41e <__EEPROM_REGION_LENGTH__+0x1e>
     3fc:	f7 01       	movw	r30, r14
     3fe:	63 89       	ldd	r22, Z+19	; 0x13
     400:	74 89       	ldd	r23, Z+20	; 0x14
     402:	85 89       	ldd	r24, Z+21	; 0x15
     404:	96 89       	ldd	r25, Z+22	; 0x16
     406:	20 e0       	ldi	r18, 0x00	; 0
     408:	30 e0       	ldi	r19, 0x00	; 0
     40a:	40 e0       	ldi	r20, 0x00	; 0
     40c:	5f e3       	ldi	r21, 0x3F	; 63
     40e:	0e 94 e1 0f 	call	0x1fc2	; 0x1fc2 <__gesf2>
     412:	88 23       	and	r24, r24
     414:	24 f0       	brlt	.+8      	; 0x41e <__EEPROM_REGION_LENGTH__+0x1e>
     416:	f7 01       	movw	r30, r14
     418:	83 8d       	ldd	r24, Z+27	; 0x1b
     41a:	82 60       	ori	r24, 0x02	; 2
     41c:	83 8f       	std	Z+27, r24	; 0x1b
     41e:	23 ec       	ldi	r18, 0xC3	; 195
     420:	35 ef       	ldi	r19, 0xF5	; 245
     422:	48 ea       	ldi	r20, 0xA8	; 168
     424:	5e e3       	ldi	r21, 0x3E	; 62
     426:	c5 01       	movw	r24, r10
     428:	b4 01       	movw	r22, r8
     42a:	0e 94 e1 0f 	call	0x1fc2	; 0x1fc2 <__gesf2>
     42e:	88 23       	and	r24, r24
     430:	f4 f0       	brlt	.+60     	; 0x46e <__EEPROM_REGION_LENGTH__+0x6e>
     432:	f7 01       	movw	r30, r14
     434:	63 89       	ldd	r22, Z+19	; 0x13
     436:	74 89       	ldd	r23, Z+20	; 0x14
     438:	85 89       	ldd	r24, Z+21	; 0x15
     43a:	96 89       	ldd	r25, Z+22	; 0x16
     43c:	23 ec       	ldi	r18, 0xC3	; 195
     43e:	35 ef       	ldi	r19, 0xF5	; 245
     440:	48 ea       	ldi	r20, 0xA8	; 168
     442:	5e e3       	ldi	r21, 0x3E	; 62
     444:	0e 94 e1 0f 	call	0x1fc2	; 0x1fc2 <__gesf2>
     448:	88 23       	and	r24, r24
     44a:	8c f0       	brlt	.+34     	; 0x46e <__EEPROM_REGION_LENGTH__+0x6e>
     44c:	f7 01       	movw	r30, r14
     44e:	67 89       	ldd	r22, Z+23	; 0x17
     450:	70 8d       	ldd	r23, Z+24	; 0x18
     452:	81 8d       	ldd	r24, Z+25	; 0x19
     454:	92 8d       	ldd	r25, Z+26	; 0x1a
     456:	23 ec       	ldi	r18, 0xC3	; 195
     458:	35 ef       	ldi	r19, 0xF5	; 245
     45a:	48 ea       	ldi	r20, 0xA8	; 168
     45c:	5e e3       	ldi	r21, 0x3E	; 62
     45e:	0e 94 e1 0f 	call	0x1fc2	; 0x1fc2 <__gesf2>
     462:	88 23       	and	r24, r24
     464:	24 f0       	brlt	.+8      	; 0x46e <__EEPROM_REGION_LENGTH__+0x6e>
     466:	f7 01       	movw	r30, r14
     468:	83 8d       	ldd	r24, Z+27	; 0x1b
     46a:	84 60       	ori	r24, 0x04	; 4
     46c:	83 8f       	std	Z+27, r24	; 0x1b
     46e:	f7 01       	movw	r30, r14
     470:	43 88       	ldd	r4, Z+19	; 0x13
     472:	54 88       	ldd	r5, Z+20	; 0x14
     474:	65 88       	ldd	r6, Z+21	; 0x15
     476:	76 88       	ldd	r7, Z+22	; 0x16
     478:	20 e0       	ldi	r18, 0x00	; 0
     47a:	30 e0       	ldi	r19, 0x00	; 0
     47c:	40 e8       	ldi	r20, 0x80	; 128
     47e:	5f e3       	ldi	r21, 0x3F	; 63
     480:	c3 01       	movw	r24, r6
     482:	b2 01       	movw	r22, r4
     484:	0e 94 e1 0f 	call	0x1fc2	; 0x1fc2 <__gesf2>
     488:	88 23       	and	r24, r24
     48a:	24 f0       	brlt	.+8      	; 0x494 <__EEPROM_REGION_LENGTH__+0x94>
     48c:	f7 01       	movw	r30, r14
     48e:	83 8d       	ldd	r24, Z+27	; 0x1b
     490:	88 60       	ori	r24, 0x08	; 8
     492:	83 8f       	std	Z+27, r24	; 0x1b
     494:	20 e0       	ldi	r18, 0x00	; 0
     496:	30 e0       	ldi	r19, 0x00	; 0
     498:	40 e0       	ldi	r20, 0x00	; 0
     49a:	5f e3       	ldi	r21, 0x3F	; 63
     49c:	c3 01       	movw	r24, r6
     49e:	b2 01       	movw	r22, r4
     4a0:	0e 94 e1 0f 	call	0x1fc2	; 0x1fc2 <__gesf2>
     4a4:	88 23       	and	r24, r24
     4a6:	8c f0       	brlt	.+34     	; 0x4ca <__EEPROM_REGION_LENGTH__+0xca>
     4a8:	f7 01       	movw	r30, r14
     4aa:	67 89       	ldd	r22, Z+23	; 0x17
     4ac:	70 8d       	ldd	r23, Z+24	; 0x18
     4ae:	81 8d       	ldd	r24, Z+25	; 0x19
     4b0:	92 8d       	ldd	r25, Z+26	; 0x1a
     4b2:	20 e0       	ldi	r18, 0x00	; 0
     4b4:	30 e0       	ldi	r19, 0x00	; 0
     4b6:	40 e0       	ldi	r20, 0x00	; 0
     4b8:	5f e3       	ldi	r21, 0x3F	; 63
     4ba:	0e 94 e1 0f 	call	0x1fc2	; 0x1fc2 <__gesf2>
     4be:	88 23       	and	r24, r24
     4c0:	24 f0       	brlt	.+8      	; 0x4ca <__EEPROM_REGION_LENGTH__+0xca>
     4c2:	f7 01       	movw	r30, r14
     4c4:	83 8d       	ldd	r24, Z+27	; 0x1b
     4c6:	80 61       	ori	r24, 0x10	; 16
     4c8:	83 8f       	std	Z+27, r24	; 0x1b
     4ca:	f7 01       	movw	r30, r14
     4cc:	47 88       	ldd	r4, Z+23	; 0x17
     4ce:	50 8c       	ldd	r5, Z+24	; 0x18
     4d0:	61 8c       	ldd	r6, Z+25	; 0x19
     4d2:	72 8c       	ldd	r7, Z+26	; 0x1a
     4d4:	20 e0       	ldi	r18, 0x00	; 0
     4d6:	30 e0       	ldi	r19, 0x00	; 0
     4d8:	40 e8       	ldi	r20, 0x80	; 128
     4da:	5f e3       	ldi	r21, 0x3F	; 63
     4dc:	c3 01       	movw	r24, r6
     4de:	b2 01       	movw	r22, r4
     4e0:	0e 94 e1 0f 	call	0x1fc2	; 0x1fc2 <__gesf2>
     4e4:	88 23       	and	r24, r24
     4e6:	24 f0       	brlt	.+8      	; 0x4f0 <__EEPROM_REGION_LENGTH__+0xf0>
     4e8:	f7 01       	movw	r30, r14
     4ea:	83 8d       	ldd	r24, Z+27	; 0x1b
     4ec:	80 62       	ori	r24, 0x20	; 32
     4ee:	83 8f       	std	Z+27, r24	; 0x1b
     4f0:	20 e0       	ldi	r18, 0x00	; 0
     4f2:	30 e0       	ldi	r19, 0x00	; 0
     4f4:	40 e0       	ldi	r20, 0x00	; 0
     4f6:	5f e3       	ldi	r21, 0x3F	; 63
     4f8:	c5 01       	movw	r24, r10
     4fa:	b4 01       	movw	r22, r8
     4fc:	0e 94 e1 0f 	call	0x1fc2	; 0x1fc2 <__gesf2>
     500:	88 23       	and	r24, r24
     502:	74 f0       	brlt	.+28     	; 0x520 <__EEPROM_REGION_LENGTH__+0x120>
     504:	20 e0       	ldi	r18, 0x00	; 0
     506:	30 e0       	ldi	r19, 0x00	; 0
     508:	40 e0       	ldi	r20, 0x00	; 0
     50a:	5f e3       	ldi	r21, 0x3F	; 63
     50c:	c3 01       	movw	r24, r6
     50e:	b2 01       	movw	r22, r4
     510:	0e 94 e1 0f 	call	0x1fc2	; 0x1fc2 <__gesf2>
     514:	88 23       	and	r24, r24
     516:	24 f0       	brlt	.+8      	; 0x520 <__EEPROM_REGION_LENGTH__+0x120>
     518:	f7 01       	movw	r30, r14
     51a:	83 8d       	ldd	r24, Z+27	; 0x1b
     51c:	80 64       	ori	r24, 0x40	; 64
     51e:	83 8f       	std	Z+27, r24	; 0x1b
     520:	f7 01       	movw	r30, r14
     522:	80 81       	ld	r24, Z
     524:	88 23       	and	r24, r24
     526:	c9 f0       	breq	.+50     	; 0x55a <__EEPROM_REGION_LENGTH__+0x15a>
     528:	6d e0       	ldi	r22, 0x0D	; 13
     52a:	87 01       	movw	r16, r14
     52c:	0e 5f       	subi	r16, 0xFE	; 254
     52e:	1f 4f       	sbci	r17, 0xFF	; 255
     530:	c8 01       	movw	r24, r16
     532:	0e 94 4f 0e 	call	0x1c9e	; 0x1c9e <_ZN6Serial12transmitCharEc>
     536:	65 e1       	ldi	r22, 0x15	; 21
     538:	71 e0       	ldi	r23, 0x01	; 1
     53a:	c8 01       	movw	r24, r16
     53c:	0e 94 42 0e 	call	0x1c84	; 0x1c84 <_ZN6Serial8transmitEPc>
     540:	6d e0       	ldi	r22, 0x0D	; 13
     542:	c8 01       	movw	r24, r16
     544:	0e 94 4f 0e 	call	0x1c9e	; 0x1c9e <_ZN6Serial12transmitCharEc>
     548:	69 e2       	ldi	r22, 0x29	; 41
     54a:	71 e0       	ldi	r23, 0x01	; 1
     54c:	c8 01       	movw	r24, r16
     54e:	0e 94 42 0e 	call	0x1c84	; 0x1c84 <_ZN6Serial8transmitEPc>
     552:	6d e0       	ldi	r22, 0x0D	; 13
     554:	c8 01       	movw	r24, r16
     556:	0e 94 4f 0e 	call	0x1c9e	; 0x1c9e <_ZN6Serial12transmitCharEc>
     55a:	67 01       	movw	r12, r14
     55c:	fe e0       	ldi	r31, 0x0E	; 14
     55e:	cf 0e       	add	r12, r31
     560:	d1 1c       	adc	r13, r1
     562:	c6 01       	movw	r24, r12
     564:	0e 94 44 09 	call	0x1288	; 0x1288 <_ZN3LCD5clearEv>
     568:	6e e3       	ldi	r22, 0x3E	; 62
     56a:	71 e0       	ldi	r23, 0x01	; 1
     56c:	c6 01       	movw	r24, r12
     56e:	0e 94 21 09 	call	0x1242	; 0x1242 <_ZN3LCD5writeEPc>
     572:	62 e0       	ldi	r22, 0x02	; 2
     574:	c6 01       	movw	r24, r12
     576:	0e 94 35 09 	call	0x126a	; 0x126a <_ZN3LCD16setCursor_inLineEh>
     57a:	6c e1       	ldi	r22, 0x1C	; 28
     57c:	71 e0       	ldi	r23, 0x01	; 1
     57e:	c6 01       	movw	r24, r12
     580:	0e 94 21 09 	call	0x1242	; 0x1242 <_ZN3LCD5writeEPc>
     584:	2f ef       	ldi	r18, 0xFF	; 255
     586:	89 e6       	ldi	r24, 0x69	; 105
     588:	98 e1       	ldi	r25, 0x18	; 24
     58a:	21 50       	subi	r18, 0x01	; 1
     58c:	80 40       	sbci	r24, 0x00	; 0
     58e:	90 40       	sbci	r25, 0x00	; 0
     590:	e1 f7       	brne	.-8      	; 0x58a <__EEPROM_REGION_LENGTH__+0x18a>
     592:	00 c0       	rjmp	.+0      	; 0x594 <__EEPROM_REGION_LENGTH__+0x194>
     594:	00 00       	nop
     596:	c6 01       	movw	r24, r12
     598:	0e 94 44 09 	call	0x1288	; 0x1288 <_ZN3LCD5clearEv>
     59c:	61 e3       	ldi	r22, 0x31	; 49
     59e:	71 e0       	ldi	r23, 0x01	; 1
     5a0:	c6 01       	movw	r24, r12
     5a2:	0e 94 21 09 	call	0x1242	; 0x1242 <_ZN3LCD5writeEPc>
     5a6:	62 e0       	ldi	r22, 0x02	; 2
     5a8:	c6 01       	movw	r24, r12
     5aa:	0e 94 35 09 	call	0x126a	; 0x126a <_ZN3LCD16setCursor_inLineEh>
     5ae:	00 e0       	ldi	r16, 0x00	; 0
     5b0:	10 e0       	ldi	r17, 0x00	; 0
     5b2:	07 30       	cpi	r16, 0x07	; 7
     5b4:	11 05       	cpc	r17, r1
     5b6:	0c f0       	brlt	.+2      	; 0x5ba <__EEPROM_REGION_LENGTH__+0x1ba>
     5b8:	46 c0       	rjmp	.+140    	; 0x646 <__EEPROM_REGION_LENGTH__+0x246>
     5ba:	f7 01       	movw	r30, r14
     5bc:	43 8d       	ldd	r20, Z+27	; 0x1b
     5be:	81 e0       	ldi	r24, 0x01	; 1
     5c0:	90 e0       	ldi	r25, 0x00	; 0
     5c2:	9c 01       	movw	r18, r24
     5c4:	00 2e       	mov	r0, r16
     5c6:	02 c0       	rjmp	.+4      	; 0x5cc <__EEPROM_REGION_LENGTH__+0x1cc>
     5c8:	22 0f       	add	r18, r18
     5ca:	33 1f       	adc	r19, r19
     5cc:	0a 94       	dec	r0
     5ce:	e2 f7       	brpl	.-8      	; 0x5c8 <__EEPROM_REGION_LENGTH__+0x1c8>
     5d0:	84 2f       	mov	r24, r20
     5d2:	90 e0       	ldi	r25, 0x00	; 0
     5d4:	82 23       	and	r24, r18
     5d6:	93 23       	and	r25, r19
     5d8:	18 16       	cp	r1, r24
     5da:	19 06       	cpc	r1, r25
     5dc:	8c f5       	brge	.+98     	; 0x640 <__EEPROM_REGION_LENGTH__+0x240>
     5de:	c8 01       	movw	r24, r16
     5e0:	01 96       	adiw	r24, 0x01	; 1
     5e2:	9f 93       	push	r25
     5e4:	8f 93       	push	r24
     5e6:	85 e4       	ldi	r24, 0x45	; 69
     5e8:	91 e0       	ldi	r25, 0x01	; 1
     5ea:	9f 93       	push	r25
     5ec:	8f 93       	push	r24
     5ee:	ce 01       	movw	r24, r28
     5f0:	01 96       	adiw	r24, 0x01	; 1
     5f2:	9f 93       	push	r25
     5f4:	8f 93       	push	r24
     5f6:	0e 94 eb 10 	call	0x21d6	; 0x21d6 <sprintf>
     5fa:	f7 01       	movw	r30, r14
     5fc:	80 81       	ld	r24, Z
     5fe:	0f 90       	pop	r0
     600:	0f 90       	pop	r0
     602:	0f 90       	pop	r0
     604:	0f 90       	pop	r0
     606:	0f 90       	pop	r0
     608:	0f 90       	pop	r0
     60a:	88 23       	and	r24, r24
     60c:	71 f0       	breq	.+28     	; 0x62a <__EEPROM_REGION_LENGTH__+0x22a>
     60e:	be 01       	movw	r22, r28
     610:	6f 5f       	subi	r22, 0xFF	; 255
     612:	7f 4f       	sbci	r23, 0xFF	; 255
     614:	57 01       	movw	r10, r14
     616:	f2 e0       	ldi	r31, 0x02	; 2
     618:	af 0e       	add	r10, r31
     61a:	b1 1c       	adc	r11, r1
     61c:	c5 01       	movw	r24, r10
     61e:	0e 94 42 0e 	call	0x1c84	; 0x1c84 <_ZN6Serial8transmitEPc>
     622:	6d e0       	ldi	r22, 0x0D	; 13
     624:	c5 01       	movw	r24, r10
     626:	0e 94 4f 0e 	call	0x1c9e	; 0x1c9e <_ZN6Serial12transmitCharEc>
     62a:	be 01       	movw	r22, r28
     62c:	6f 5f       	subi	r22, 0xFF	; 255
     62e:	7f 4f       	sbci	r23, 0xFF	; 255
     630:	c6 01       	movw	r24, r12
     632:	0e 94 21 09 	call	0x1242	; 0x1242 <_ZN3LCD5writeEPc>
     636:	60 ef       	ldi	r22, 0xF0	; 240
     638:	71 e0       	ldi	r23, 0x01	; 1
     63a:	c6 01       	movw	r24, r12
     63c:	0e 94 21 09 	call	0x1242	; 0x1242 <_ZN3LCD5writeEPc>
     640:	0f 5f       	subi	r16, 0xFF	; 255
     642:	1f 4f       	sbci	r17, 0xFF	; 255
     644:	b6 cf       	rjmp	.-148    	; 0x5b2 <__EEPROM_REGION_LENGTH__+0x1b2>
     646:	2f ef       	ldi	r18, 0xFF	; 255
     648:	83 ed       	ldi	r24, 0xD3	; 211
     64a:	90 e3       	ldi	r25, 0x30	; 48
     64c:	21 50       	subi	r18, 0x01	; 1
     64e:	80 40       	sbci	r24, 0x00	; 0
     650:	90 40       	sbci	r25, 0x00	; 0
     652:	e1 f7       	brne	.-8      	; 0x64c <__EEPROM_REGION_LENGTH__+0x24c>
     654:	00 c0       	rjmp	.+0      	; 0x656 <__EEPROM_REGION_LENGTH__+0x256>
     656:	00 00       	nop
     658:	2a 96       	adiw	r28, 0x0a	; 10
     65a:	0f b6       	in	r0, 0x3f	; 63
     65c:	f8 94       	cli
     65e:	de bf       	out	0x3e, r29	; 62
     660:	0f be       	out	0x3f, r0	; 63
     662:	cd bf       	out	0x3d, r28	; 61
     664:	df 91       	pop	r29
     666:	cf 91       	pop	r28
     668:	1f 91       	pop	r17
     66a:	0f 91       	pop	r16
     66c:	ff 90       	pop	r15
     66e:	ef 90       	pop	r14
     670:	df 90       	pop	r13
     672:	cf 90       	pop	r12
     674:	bf 90       	pop	r11
     676:	af 90       	pop	r10
     678:	9f 90       	pop	r9
     67a:	8f 90       	pop	r8
     67c:	7f 90       	pop	r7
     67e:	6f 90       	pop	r6
     680:	5f 90       	pop	r5
     682:	4f 90       	pop	r4
     684:	08 95       	ret

00000686 <_ZN10DrinkMaker9makeDrinkEPVh>:
     686:	4f 92       	push	r4
     688:	5f 92       	push	r5
     68a:	6f 92       	push	r6
     68c:	7f 92       	push	r7
     68e:	8f 92       	push	r8
     690:	9f 92       	push	r9
     692:	af 92       	push	r10
     694:	bf 92       	push	r11
     696:	cf 92       	push	r12
     698:	df 92       	push	r13
     69a:	ef 92       	push	r14
     69c:	ff 92       	push	r15
     69e:	cf 93       	push	r28
     6a0:	df 93       	push	r29
     6a2:	db 01       	movw	r26, r22
     6a4:	ec 91       	ld	r30, X
     6a6:	4e 2f       	mov	r20, r30
     6a8:	50 e0       	ldi	r21, 0x00	; 0
     6aa:	fa 01       	movw	r30, r20
     6ac:	31 97       	sbiw	r30, 0x01	; 1
     6ae:	e7 30       	cpi	r30, 0x07	; 7
     6b0:	f1 05       	cpc	r31, r1
     6b2:	08 f0       	brcs	.+2      	; 0x6b6 <_ZN10DrinkMaker9makeDrinkEPVh+0x30>
     6b4:	4c c2       	rjmp	.+1176   	; 0xb4e <__stack+0x24f>
     6b6:	ec 01       	movw	r28, r24
     6b8:	e4 5c       	subi	r30, 0xC4	; 196
     6ba:	ff 4f       	sbci	r31, 0xFF	; 255
     6bc:	0c 94 e5 10 	jmp	0x21ca	; 0x21ca <__tablejump2__>
     6c0:	cf 84       	ldd	r12, Y+15	; 0x0f
     6c2:	d8 88       	ldd	r13, Y+16	; 0x10
     6c4:	e9 88       	ldd	r14, Y+17	; 0x11
     6c6:	fa 88       	ldd	r15, Y+18	; 0x12
     6c8:	20 e0       	ldi	r18, 0x00	; 0
     6ca:	30 e0       	ldi	r19, 0x00	; 0
     6cc:	40 e8       	ldi	r20, 0x80	; 128
     6ce:	5f e3       	ldi	r21, 0x3F	; 63
     6d0:	c7 01       	movw	r24, r14
     6d2:	b6 01       	movw	r22, r12
     6d4:	0e 94 e1 0f 	call	0x1fc2	; 0x1fc2 <__gesf2>
     6d8:	88 23       	and	r24, r24
     6da:	6c f1       	brlt	.+90     	; 0x736 <_ZN10DrinkMaker9makeDrinkEPVh+0xb0>
     6dc:	20 e0       	ldi	r18, 0x00	; 0
     6de:	30 e0       	ldi	r19, 0x00	; 0
     6e0:	40 e8       	ldi	r20, 0x80	; 128
     6e2:	5f e3       	ldi	r21, 0x3F	; 63
     6e4:	c7 01       	movw	r24, r14
     6e6:	b6 01       	movw	r22, r12
     6e8:	0e 94 b0 0e 	call	0x1d60	; 0x1d60 <__subsf3>
     6ec:	6f 87       	std	Y+15, r22	; 0x0f
     6ee:	78 8b       	std	Y+16, r23	; 0x10
     6f0:	89 8b       	std	Y+17, r24	; 0x11
     6f2:	9a 8b       	std	Y+18, r25	; 0x12
     6f4:	20 e0       	ldi	r18, 0x00	; 0
     6f6:	30 e0       	ldi	r19, 0x00	; 0
     6f8:	40 ec       	ldi	r20, 0xC0	; 192
     6fa:	5f e3       	ldi	r21, 0x3F	; 63
     6fc:	6c 8d       	ldd	r22, Y+28	; 0x1c
     6fe:	7d 8d       	ldd	r23, Y+29	; 0x1d
     700:	8e 8d       	ldd	r24, Y+30	; 0x1e
     702:	9f 8d       	ldd	r25, Y+31	; 0x1f
     704:	0e 94 b1 0e 	call	0x1d62	; 0x1d62 <__addsf3>
     708:	6c 8f       	std	Y+28, r22	; 0x1c
     70a:	7d 8f       	std	Y+29, r23	; 0x1d
     70c:	8e 8f       	std	Y+30, r24	; 0x1e
     70e:	9f 8f       	std	Y+31, r25	; 0x1f
     710:	88 81       	ld	r24, Y
     712:	88 23       	and	r24, r24
     714:	69 f0       	breq	.+26     	; 0x730 <_ZN10DrinkMaker9makeDrinkEPVh+0xaa>
     716:	68 e4       	ldi	r22, 0x48	; 72
     718:	71 e0       	ldi	r23, 0x01	; 1
     71a:	7e 01       	movw	r14, r28
     71c:	b2 e0       	ldi	r27, 0x02	; 2
     71e:	eb 0e       	add	r14, r27
     720:	f1 1c       	adc	r15, r1
     722:	c7 01       	movw	r24, r14
     724:	0e 94 42 0e 	call	0x1c84	; 0x1c84 <_ZN6Serial8transmitEPc>
     728:	6d e0       	ldi	r22, 0x0D	; 13
     72a:	c7 01       	movw	r24, r14
     72c:	0e 94 4f 0e 	call	0x1c9e	; 0x1c9e <_ZN6Serial12transmitCharEc>
     730:	81 e0       	ldi	r24, 0x01	; 1
     732:	89 83       	std	Y+1, r24	; 0x01
     734:	0c c2       	rjmp	.+1048   	; 0xb4e <__stack+0x24f>
     736:	19 82       	std	Y+1, r1	; 0x01
     738:	ce 01       	movw	r24, r28
     73a:	0e 94 c8 01 	call	0x390	; 0x390 <_ZN10DrinkMaker21show_avaliable_drinksEv>
     73e:	07 c2       	rjmp	.+1038   	; 0xb4e <__stack+0x24f>
     740:	cf 84       	ldd	r12, Y+15	; 0x0f
     742:	d8 88       	ldd	r13, Y+16	; 0x10
     744:	e9 88       	ldd	r14, Y+17	; 0x11
     746:	fa 88       	ldd	r15, Y+18	; 0x12
     748:	20 e0       	ldi	r18, 0x00	; 0
     74a:	30 e0       	ldi	r19, 0x00	; 0
     74c:	40 e0       	ldi	r20, 0x00	; 0
     74e:	5f e3       	ldi	r21, 0x3F	; 63
     750:	c7 01       	movw	r24, r14
     752:	b6 01       	movw	r22, r12
     754:	0e 94 e1 0f 	call	0x1fc2	; 0x1fc2 <__gesf2>
     758:	88 23       	and	r24, r24
     75a:	0c f4       	brge	.+2      	; 0x75e <_ZN10DrinkMaker9makeDrinkEPVh+0xd8>
     75c:	47 c0       	rjmp	.+142    	; 0x7ec <_ZN10DrinkMaker9makeDrinkEPVh+0x166>
     75e:	8b 88       	ldd	r8, Y+19	; 0x13
     760:	9c 88       	ldd	r9, Y+20	; 0x14
     762:	ad 88       	ldd	r10, Y+21	; 0x15
     764:	be 88       	ldd	r11, Y+22	; 0x16
     766:	20 e0       	ldi	r18, 0x00	; 0
     768:	30 e0       	ldi	r19, 0x00	; 0
     76a:	40 e0       	ldi	r20, 0x00	; 0
     76c:	5f e3       	ldi	r21, 0x3F	; 63
     76e:	c5 01       	movw	r24, r10
     770:	b4 01       	movw	r22, r8
     772:	0e 94 e1 0f 	call	0x1fc2	; 0x1fc2 <__gesf2>
     776:	18 16       	cp	r1, r24
     778:	cc f5       	brge	.+114    	; 0x7ec <_ZN10DrinkMaker9makeDrinkEPVh+0x166>
     77a:	20 e0       	ldi	r18, 0x00	; 0
     77c:	30 e0       	ldi	r19, 0x00	; 0
     77e:	40 e0       	ldi	r20, 0x00	; 0
     780:	5f e3       	ldi	r21, 0x3F	; 63
     782:	c7 01       	movw	r24, r14
     784:	b6 01       	movw	r22, r12
     786:	0e 94 b0 0e 	call	0x1d60	; 0x1d60 <__subsf3>
     78a:	6f 87       	std	Y+15, r22	; 0x0f
     78c:	78 8b       	std	Y+16, r23	; 0x10
     78e:	89 8b       	std	Y+17, r24	; 0x11
     790:	9a 8b       	std	Y+18, r25	; 0x12
     792:	20 e0       	ldi	r18, 0x00	; 0
     794:	30 e0       	ldi	r19, 0x00	; 0
     796:	40 e0       	ldi	r20, 0x00	; 0
     798:	5f e3       	ldi	r21, 0x3F	; 63
     79a:	c5 01       	movw	r24, r10
     79c:	b4 01       	movw	r22, r8
     79e:	0e 94 b0 0e 	call	0x1d60	; 0x1d60 <__subsf3>
     7a2:	6b 8b       	std	Y+19, r22	; 0x13
     7a4:	7c 8b       	std	Y+20, r23	; 0x14
     7a6:	8d 8b       	std	Y+21, r24	; 0x15
     7a8:	9e 8b       	std	Y+22, r25	; 0x16
     7aa:	20 e0       	ldi	r18, 0x00	; 0
     7ac:	30 e0       	ldi	r19, 0x00	; 0
     7ae:	40 e0       	ldi	r20, 0x00	; 0
     7b0:	50 e4       	ldi	r21, 0x40	; 64
     7b2:	6c 8d       	ldd	r22, Y+28	; 0x1c
     7b4:	7d 8d       	ldd	r23, Y+29	; 0x1d
     7b6:	8e 8d       	ldd	r24, Y+30	; 0x1e
     7b8:	9f 8d       	ldd	r25, Y+31	; 0x1f
     7ba:	0e 94 b1 0e 	call	0x1d62	; 0x1d62 <__addsf3>
     7be:	6c 8f       	std	Y+28, r22	; 0x1c
     7c0:	7d 8f       	std	Y+29, r23	; 0x1d
     7c2:	8e 8f       	std	Y+30, r24	; 0x1e
     7c4:	9f 8f       	std	Y+31, r25	; 0x1f
     7c6:	88 81       	ld	r24, Y
     7c8:	88 23       	and	r24, r24
     7ca:	69 f0       	breq	.+26     	; 0x7e6 <_ZN10DrinkMaker9makeDrinkEPVh+0x160>
     7cc:	6e e5       	ldi	r22, 0x5E	; 94
     7ce:	71 e0       	ldi	r23, 0x01	; 1
     7d0:	7e 01       	movw	r14, r28
     7d2:	82 e0       	ldi	r24, 0x02	; 2
     7d4:	e8 0e       	add	r14, r24
     7d6:	f1 1c       	adc	r15, r1
     7d8:	c7 01       	movw	r24, r14
     7da:	0e 94 42 0e 	call	0x1c84	; 0x1c84 <_ZN6Serial8transmitEPc>
     7de:	6d e0       	ldi	r22, 0x0D	; 13
     7e0:	c7 01       	movw	r24, r14
     7e2:	0e 94 4f 0e 	call	0x1c9e	; 0x1c9e <_ZN6Serial12transmitCharEc>
     7e6:	81 e0       	ldi	r24, 0x01	; 1
     7e8:	89 83       	std	Y+1, r24	; 0x01
     7ea:	b1 c1       	rjmp	.+866    	; 0xb4e <__stack+0x24f>
     7ec:	1b 8e       	std	Y+27, r1	; 0x1b
     7ee:	ce 01       	movw	r24, r28
     7f0:	0e 94 c8 01 	call	0x390	; 0x390 <_ZN10DrinkMaker21show_avaliable_drinksEv>
     7f4:	ac c1       	rjmp	.+856    	; 0xb4e <__stack+0x24f>
     7f6:	cf 84       	ldd	r12, Y+15	; 0x0f
     7f8:	d8 88       	ldd	r13, Y+16	; 0x10
     7fa:	e9 88       	ldd	r14, Y+17	; 0x11
     7fc:	fa 88       	ldd	r15, Y+18	; 0x12
     7fe:	23 ec       	ldi	r18, 0xC3	; 195
     800:	35 ef       	ldi	r19, 0xF5	; 245
     802:	48 ea       	ldi	r20, 0xA8	; 168
     804:	5e e3       	ldi	r21, 0x3E	; 62
     806:	c7 01       	movw	r24, r14
     808:	b6 01       	movw	r22, r12
     80a:	0e 94 e1 0f 	call	0x1fc2	; 0x1fc2 <__gesf2>
     80e:	88 23       	and	r24, r24
     810:	0c f4       	brge	.+2      	; 0x814 <__DATA_REGION_LENGTH__+0x14>
     812:	63 c0       	rjmp	.+198    	; 0x8da <__DATA_REGION_LENGTH__+0xda>
     814:	8b 88       	ldd	r8, Y+19	; 0x13
     816:	9c 88       	ldd	r9, Y+20	; 0x14
     818:	ad 88       	ldd	r10, Y+21	; 0x15
     81a:	be 88       	ldd	r11, Y+22	; 0x16
     81c:	23 ec       	ldi	r18, 0xC3	; 195
     81e:	35 ef       	ldi	r19, 0xF5	; 245
     820:	48 ea       	ldi	r20, 0xA8	; 168
     822:	5e e3       	ldi	r21, 0x3E	; 62
     824:	c5 01       	movw	r24, r10
     826:	b4 01       	movw	r22, r8
     828:	0e 94 e1 0f 	call	0x1fc2	; 0x1fc2 <__gesf2>
     82c:	88 23       	and	r24, r24
     82e:	0c f4       	brge	.+2      	; 0x832 <__DATA_REGION_LENGTH__+0x32>
     830:	54 c0       	rjmp	.+168    	; 0x8da <__DATA_REGION_LENGTH__+0xda>
     832:	4f 88       	ldd	r4, Y+23	; 0x17
     834:	58 8c       	ldd	r5, Y+24	; 0x18
     836:	69 8c       	ldd	r6, Y+25	; 0x19
     838:	7a 8c       	ldd	r7, Y+26	; 0x1a
     83a:	23 ec       	ldi	r18, 0xC3	; 195
     83c:	35 ef       	ldi	r19, 0xF5	; 245
     83e:	48 ea       	ldi	r20, 0xA8	; 168
     840:	5e e3       	ldi	r21, 0x3E	; 62
     842:	c3 01       	movw	r24, r6
     844:	b2 01       	movw	r22, r4
     846:	0e 94 e1 0f 	call	0x1fc2	; 0x1fc2 <__gesf2>
     84a:	88 23       	and	r24, r24
     84c:	0c f4       	brge	.+2      	; 0x850 <__DATA_REGION_LENGTH__+0x50>
     84e:	45 c0       	rjmp	.+138    	; 0x8da <__DATA_REGION_LENGTH__+0xda>
     850:	23 ec       	ldi	r18, 0xC3	; 195
     852:	35 ef       	ldi	r19, 0xF5	; 245
     854:	48 ea       	ldi	r20, 0xA8	; 168
     856:	5e e3       	ldi	r21, 0x3E	; 62
     858:	c7 01       	movw	r24, r14
     85a:	b6 01       	movw	r22, r12
     85c:	0e 94 b0 0e 	call	0x1d60	; 0x1d60 <__subsf3>
     860:	6f 87       	std	Y+15, r22	; 0x0f
     862:	78 8b       	std	Y+16, r23	; 0x10
     864:	89 8b       	std	Y+17, r24	; 0x11
     866:	9a 8b       	std	Y+18, r25	; 0x12
     868:	23 ec       	ldi	r18, 0xC3	; 195
     86a:	35 ef       	ldi	r19, 0xF5	; 245
     86c:	48 ea       	ldi	r20, 0xA8	; 168
     86e:	5e e3       	ldi	r21, 0x3E	; 62
     870:	c5 01       	movw	r24, r10
     872:	b4 01       	movw	r22, r8
     874:	0e 94 b0 0e 	call	0x1d60	; 0x1d60 <__subsf3>
     878:	6b 8b       	std	Y+19, r22	; 0x13
     87a:	7c 8b       	std	Y+20, r23	; 0x14
     87c:	8d 8b       	std	Y+21, r24	; 0x15
     87e:	9e 8b       	std	Y+22, r25	; 0x16
     880:	23 ec       	ldi	r18, 0xC3	; 195
     882:	35 ef       	ldi	r19, 0xF5	; 245
     884:	48 ea       	ldi	r20, 0xA8	; 168
     886:	5e e3       	ldi	r21, 0x3E	; 62
     888:	c3 01       	movw	r24, r6
     88a:	b2 01       	movw	r22, r4
     88c:	0e 94 b0 0e 	call	0x1d60	; 0x1d60 <__subsf3>
     890:	6f 8b       	std	Y+23, r22	; 0x17
     892:	78 8f       	std	Y+24, r23	; 0x18
     894:	89 8f       	std	Y+25, r24	; 0x19
     896:	9a 8f       	std	Y+26, r25	; 0x1a
     898:	20 e0       	ldi	r18, 0x00	; 0
     89a:	30 e0       	ldi	r19, 0x00	; 0
     89c:	40 e3       	ldi	r20, 0x30	; 48
     89e:	50 e4       	ldi	r21, 0x40	; 64
     8a0:	6c 8d       	ldd	r22, Y+28	; 0x1c
     8a2:	7d 8d       	ldd	r23, Y+29	; 0x1d
     8a4:	8e 8d       	ldd	r24, Y+30	; 0x1e
     8a6:	9f 8d       	ldd	r25, Y+31	; 0x1f
     8a8:	0e 94 b1 0e 	call	0x1d62	; 0x1d62 <__addsf3>
     8ac:	6c 8f       	std	Y+28, r22	; 0x1c
     8ae:	7d 8f       	std	Y+29, r23	; 0x1d
     8b0:	8e 8f       	std	Y+30, r24	; 0x1e
     8b2:	9f 8f       	std	Y+31, r25	; 0x1f
     8b4:	88 81       	ld	r24, Y
     8b6:	88 23       	and	r24, r24
     8b8:	69 f0       	breq	.+26     	; 0x8d4 <__DATA_REGION_LENGTH__+0xd4>
     8ba:	64 e7       	ldi	r22, 0x74	; 116
     8bc:	71 e0       	ldi	r23, 0x01	; 1
     8be:	7e 01       	movw	r14, r28
     8c0:	a2 e0       	ldi	r26, 0x02	; 2
     8c2:	ea 0e       	add	r14, r26
     8c4:	f1 1c       	adc	r15, r1
     8c6:	c7 01       	movw	r24, r14
     8c8:	0e 94 42 0e 	call	0x1c84	; 0x1c84 <_ZN6Serial8transmitEPc>
     8cc:	6d e0       	ldi	r22, 0x0D	; 13
     8ce:	c7 01       	movw	r24, r14
     8d0:	0e 94 4f 0e 	call	0x1c9e	; 0x1c9e <_ZN6Serial12transmitCharEc>
     8d4:	81 e0       	ldi	r24, 0x01	; 1
     8d6:	89 83       	std	Y+1, r24	; 0x01
     8d8:	3a c1       	rjmp	.+628    	; 0xb4e <__stack+0x24f>
     8da:	19 82       	std	Y+1, r1	; 0x01
     8dc:	ce 01       	movw	r24, r28
     8de:	0e 94 c8 01 	call	0x390	; 0x390 <_ZN10DrinkMaker21show_avaliable_drinksEv>
     8e2:	35 c1       	rjmp	.+618    	; 0xb4e <__stack+0x24f>
     8e4:	cb 88       	ldd	r12, Y+19	; 0x13
     8e6:	dc 88       	ldd	r13, Y+20	; 0x14
     8e8:	ed 88       	ldd	r14, Y+21	; 0x15
     8ea:	fe 88       	ldd	r15, Y+22	; 0x16
     8ec:	20 e0       	ldi	r18, 0x00	; 0
     8ee:	30 e0       	ldi	r19, 0x00	; 0
     8f0:	40 e8       	ldi	r20, 0x80	; 128
     8f2:	5f e3       	ldi	r21, 0x3F	; 63
     8f4:	c7 01       	movw	r24, r14
     8f6:	b6 01       	movw	r22, r12
     8f8:	0e 94 e1 0f 	call	0x1fc2	; 0x1fc2 <__gesf2>
     8fc:	88 23       	and	r24, r24
     8fe:	6c f1       	brlt	.+90     	; 0x95a <__stack+0x5b>
     900:	20 e0       	ldi	r18, 0x00	; 0
     902:	30 e0       	ldi	r19, 0x00	; 0
     904:	40 e8       	ldi	r20, 0x80	; 128
     906:	5f e3       	ldi	r21, 0x3F	; 63
     908:	c7 01       	movw	r24, r14
     90a:	b6 01       	movw	r22, r12
     90c:	0e 94 b0 0e 	call	0x1d60	; 0x1d60 <__subsf3>
     910:	6b 8b       	std	Y+19, r22	; 0x13
     912:	7c 8b       	std	Y+20, r23	; 0x14
     914:	8d 8b       	std	Y+21, r24	; 0x15
     916:	9e 8b       	std	Y+22, r25	; 0x16
     918:	20 e0       	ldi	r18, 0x00	; 0
     91a:	30 e0       	ldi	r19, 0x00	; 0
     91c:	40 e8       	ldi	r20, 0x80	; 128
     91e:	5f e3       	ldi	r21, 0x3F	; 63
     920:	6c 8d       	ldd	r22, Y+28	; 0x1c
     922:	7d 8d       	ldd	r23, Y+29	; 0x1d
     924:	8e 8d       	ldd	r24, Y+30	; 0x1e
     926:	9f 8d       	ldd	r25, Y+31	; 0x1f
     928:	0e 94 b1 0e 	call	0x1d62	; 0x1d62 <__addsf3>
     92c:	6c 8f       	std	Y+28, r22	; 0x1c
     92e:	7d 8f       	std	Y+29, r23	; 0x1d
     930:	8e 8f       	std	Y+30, r24	; 0x1e
     932:	9f 8f       	std	Y+31, r25	; 0x1f
     934:	88 81       	ld	r24, Y
     936:	88 23       	and	r24, r24
     938:	69 f0       	breq	.+26     	; 0x954 <__stack+0x55>
     93a:	6a e8       	ldi	r22, 0x8A	; 138
     93c:	71 e0       	ldi	r23, 0x01	; 1
     93e:	7e 01       	movw	r14, r28
     940:	b2 e0       	ldi	r27, 0x02	; 2
     942:	eb 0e       	add	r14, r27
     944:	f1 1c       	adc	r15, r1
     946:	c7 01       	movw	r24, r14
     948:	0e 94 42 0e 	call	0x1c84	; 0x1c84 <_ZN6Serial8transmitEPc>
     94c:	6d e0       	ldi	r22, 0x0D	; 13
     94e:	c7 01       	movw	r24, r14
     950:	0e 94 4f 0e 	call	0x1c9e	; 0x1c9e <_ZN6Serial12transmitCharEc>
     954:	81 e0       	ldi	r24, 0x01	; 1
     956:	89 83       	std	Y+1, r24	; 0x01
     958:	fa c0       	rjmp	.+500    	; 0xb4e <__stack+0x24f>
     95a:	19 82       	std	Y+1, r1	; 0x01
     95c:	ce 01       	movw	r24, r28
     95e:	0e 94 c8 01 	call	0x390	; 0x390 <_ZN10DrinkMaker21show_avaliable_drinksEv>
     962:	f5 c0       	rjmp	.+490    	; 0xb4e <__stack+0x24f>
     964:	cb 88       	ldd	r12, Y+19	; 0x13
     966:	dc 88       	ldd	r13, Y+20	; 0x14
     968:	ed 88       	ldd	r14, Y+21	; 0x15
     96a:	fe 88       	ldd	r15, Y+22	; 0x16
     96c:	20 e0       	ldi	r18, 0x00	; 0
     96e:	30 e0       	ldi	r19, 0x00	; 0
     970:	40 e0       	ldi	r20, 0x00	; 0
     972:	5f e3       	ldi	r21, 0x3F	; 63
     974:	c7 01       	movw	r24, r14
     976:	b6 01       	movw	r22, r12
     978:	0e 94 e1 0f 	call	0x1fc2	; 0x1fc2 <__gesf2>
     97c:	88 23       	and	r24, r24
     97e:	0c f4       	brge	.+2      	; 0x982 <__stack+0x83>
     980:	47 c0       	rjmp	.+142    	; 0xa10 <__stack+0x111>
     982:	8f 88       	ldd	r8, Y+23	; 0x17
     984:	98 8c       	ldd	r9, Y+24	; 0x18
     986:	a9 8c       	ldd	r10, Y+25	; 0x19
     988:	ba 8c       	ldd	r11, Y+26	; 0x1a
     98a:	20 e0       	ldi	r18, 0x00	; 0
     98c:	30 e0       	ldi	r19, 0x00	; 0
     98e:	40 e0       	ldi	r20, 0x00	; 0
     990:	5f e3       	ldi	r21, 0x3F	; 63
     992:	c5 01       	movw	r24, r10
     994:	b4 01       	movw	r22, r8
     996:	0e 94 e1 0f 	call	0x1fc2	; 0x1fc2 <__gesf2>
     99a:	88 23       	and	r24, r24
     99c:	cc f1       	brlt	.+114    	; 0xa10 <__stack+0x111>
     99e:	20 e0       	ldi	r18, 0x00	; 0
     9a0:	30 e0       	ldi	r19, 0x00	; 0
     9a2:	40 e0       	ldi	r20, 0x00	; 0
     9a4:	5f e3       	ldi	r21, 0x3F	; 63
     9a6:	c7 01       	movw	r24, r14
     9a8:	b6 01       	movw	r22, r12
     9aa:	0e 94 b0 0e 	call	0x1d60	; 0x1d60 <__subsf3>
     9ae:	6b 8b       	std	Y+19, r22	; 0x13
     9b0:	7c 8b       	std	Y+20, r23	; 0x14
     9b2:	8d 8b       	std	Y+21, r24	; 0x15
     9b4:	9e 8b       	std	Y+22, r25	; 0x16
     9b6:	20 e0       	ldi	r18, 0x00	; 0
     9b8:	30 e0       	ldi	r19, 0x00	; 0
     9ba:	40 e0       	ldi	r20, 0x00	; 0
     9bc:	5f e3       	ldi	r21, 0x3F	; 63
     9be:	c5 01       	movw	r24, r10
     9c0:	b4 01       	movw	r22, r8
     9c2:	0e 94 b0 0e 	call	0x1d60	; 0x1d60 <__subsf3>
     9c6:	6f 8b       	std	Y+23, r22	; 0x17
     9c8:	78 8f       	std	Y+24, r23	; 0x18
     9ca:	89 8f       	std	Y+25, r24	; 0x19
     9cc:	9a 8f       	std	Y+26, r25	; 0x1a
     9ce:	26 e6       	ldi	r18, 0x66	; 102
     9d0:	36 e6       	ldi	r19, 0x66	; 102
     9d2:	46 ee       	ldi	r20, 0xE6	; 230
     9d4:	5f e3       	ldi	r21, 0x3F	; 63
     9d6:	6c 8d       	ldd	r22, Y+28	; 0x1c
     9d8:	7d 8d       	ldd	r23, Y+29	; 0x1d
     9da:	8e 8d       	ldd	r24, Y+30	; 0x1e
     9dc:	9f 8d       	ldd	r25, Y+31	; 0x1f
     9de:	0e 94 b1 0e 	call	0x1d62	; 0x1d62 <__addsf3>
     9e2:	6c 8f       	std	Y+28, r22	; 0x1c
     9e4:	7d 8f       	std	Y+29, r23	; 0x1d
     9e6:	8e 8f       	std	Y+30, r24	; 0x1e
     9e8:	9f 8f       	std	Y+31, r25	; 0x1f
     9ea:	88 81       	ld	r24, Y
     9ec:	88 23       	and	r24, r24
     9ee:	69 f0       	breq	.+26     	; 0xa0a <__stack+0x10b>
     9f0:	60 ea       	ldi	r22, 0xA0	; 160
     9f2:	71 e0       	ldi	r23, 0x01	; 1
     9f4:	7e 01       	movw	r14, r28
     9f6:	82 e0       	ldi	r24, 0x02	; 2
     9f8:	e8 0e       	add	r14, r24
     9fa:	f1 1c       	adc	r15, r1
     9fc:	c7 01       	movw	r24, r14
     9fe:	0e 94 42 0e 	call	0x1c84	; 0x1c84 <_ZN6Serial8transmitEPc>
     a02:	6d e0       	ldi	r22, 0x0D	; 13
     a04:	c7 01       	movw	r24, r14
     a06:	0e 94 4f 0e 	call	0x1c9e	; 0x1c9e <_ZN6Serial12transmitCharEc>
     a0a:	81 e0       	ldi	r24, 0x01	; 1
     a0c:	89 83       	std	Y+1, r24	; 0x01
     a0e:	9f c0       	rjmp	.+318    	; 0xb4e <__stack+0x24f>
     a10:	19 82       	std	Y+1, r1	; 0x01
     a12:	ce 01       	movw	r24, r28
     a14:	0e 94 c8 01 	call	0x390	; 0x390 <_ZN10DrinkMaker21show_avaliable_drinksEv>
     a18:	9a c0       	rjmp	.+308    	; 0xb4e <__stack+0x24f>
     a1a:	cf 88       	ldd	r12, Y+23	; 0x17
     a1c:	d8 8c       	ldd	r13, Y+24	; 0x18
     a1e:	e9 8c       	ldd	r14, Y+25	; 0x19
     a20:	fa 8c       	ldd	r15, Y+26	; 0x1a
     a22:	20 e0       	ldi	r18, 0x00	; 0
     a24:	30 e0       	ldi	r19, 0x00	; 0
     a26:	40 e8       	ldi	r20, 0x80	; 128
     a28:	5f e3       	ldi	r21, 0x3F	; 63
     a2a:	c7 01       	movw	r24, r14
     a2c:	b6 01       	movw	r22, r12
     a2e:	0e 94 e1 0f 	call	0x1fc2	; 0x1fc2 <__gesf2>
     a32:	88 23       	and	r24, r24
     a34:	6c f1       	brlt	.+90     	; 0xa90 <__stack+0x191>
     a36:	20 e0       	ldi	r18, 0x00	; 0
     a38:	30 e0       	ldi	r19, 0x00	; 0
     a3a:	40 e8       	ldi	r20, 0x80	; 128
     a3c:	5f e3       	ldi	r21, 0x3F	; 63
     a3e:	c7 01       	movw	r24, r14
     a40:	b6 01       	movw	r22, r12
     a42:	0e 94 b0 0e 	call	0x1d60	; 0x1d60 <__subsf3>
     a46:	6f 8b       	std	Y+23, r22	; 0x17
     a48:	78 8f       	std	Y+24, r23	; 0x18
     a4a:	89 8f       	std	Y+25, r24	; 0x19
     a4c:	9a 8f       	std	Y+26, r25	; 0x1a
     a4e:	20 e0       	ldi	r18, 0x00	; 0
     a50:	30 e0       	ldi	r19, 0x00	; 0
     a52:	40 ec       	ldi	r20, 0xC0	; 192
     a54:	5f e3       	ldi	r21, 0x3F	; 63
     a56:	6c 8d       	ldd	r22, Y+28	; 0x1c
     a58:	7d 8d       	ldd	r23, Y+29	; 0x1d
     a5a:	8e 8d       	ldd	r24, Y+30	; 0x1e
     a5c:	9f 8d       	ldd	r25, Y+31	; 0x1f
     a5e:	0e 94 b1 0e 	call	0x1d62	; 0x1d62 <__addsf3>
     a62:	6c 8f       	std	Y+28, r22	; 0x1c
     a64:	7d 8f       	std	Y+29, r23	; 0x1d
     a66:	8e 8f       	std	Y+30, r24	; 0x1e
     a68:	9f 8f       	std	Y+31, r25	; 0x1f
     a6a:	88 81       	ld	r24, Y
     a6c:	88 23       	and	r24, r24
     a6e:	69 f0       	breq	.+26     	; 0xa8a <__stack+0x18b>
     a70:	66 eb       	ldi	r22, 0xB6	; 182
     a72:	71 e0       	ldi	r23, 0x01	; 1
     a74:	7e 01       	movw	r14, r28
     a76:	a2 e0       	ldi	r26, 0x02	; 2
     a78:	ea 0e       	add	r14, r26
     a7a:	f1 1c       	adc	r15, r1
     a7c:	c7 01       	movw	r24, r14
     a7e:	0e 94 42 0e 	call	0x1c84	; 0x1c84 <_ZN6Serial8transmitEPc>
     a82:	6d e0       	ldi	r22, 0x0D	; 13
     a84:	c7 01       	movw	r24, r14
     a86:	0e 94 4f 0e 	call	0x1c9e	; 0x1c9e <_ZN6Serial12transmitCharEc>
     a8a:	81 e0       	ldi	r24, 0x01	; 1
     a8c:	89 83       	std	Y+1, r24	; 0x01
     a8e:	5f c0       	rjmp	.+190    	; 0xb4e <__stack+0x24f>
     a90:	19 82       	std	Y+1, r1	; 0x01
     a92:	ce 01       	movw	r24, r28
     a94:	0e 94 c8 01 	call	0x390	; 0x390 <_ZN10DrinkMaker21show_avaliable_drinksEv>
     a98:	5a c0       	rjmp	.+180    	; 0xb4e <__stack+0x24f>
     a9a:	cf 84       	ldd	r12, Y+15	; 0x0f
     a9c:	d8 88       	ldd	r13, Y+16	; 0x10
     a9e:	e9 88       	ldd	r14, Y+17	; 0x11
     aa0:	fa 88       	ldd	r15, Y+18	; 0x12
     aa2:	20 e0       	ldi	r18, 0x00	; 0
     aa4:	30 e0       	ldi	r19, 0x00	; 0
     aa6:	40 e0       	ldi	r20, 0x00	; 0
     aa8:	5f e3       	ldi	r21, 0x3F	; 63
     aaa:	c7 01       	movw	r24, r14
     aac:	b6 01       	movw	r22, r12
     aae:	0e 94 e1 0f 	call	0x1fc2	; 0x1fc2 <__gesf2>
     ab2:	88 23       	and	r24, r24
     ab4:	0c f4       	brge	.+2      	; 0xab8 <__stack+0x1b9>
     ab6:	47 c0       	rjmp	.+142    	; 0xb46 <__stack+0x247>
     ab8:	8f 88       	ldd	r8, Y+23	; 0x17
     aba:	98 8c       	ldd	r9, Y+24	; 0x18
     abc:	a9 8c       	ldd	r10, Y+25	; 0x19
     abe:	ba 8c       	ldd	r11, Y+26	; 0x1a
     ac0:	20 e0       	ldi	r18, 0x00	; 0
     ac2:	30 e0       	ldi	r19, 0x00	; 0
     ac4:	40 e0       	ldi	r20, 0x00	; 0
     ac6:	5f e3       	ldi	r21, 0x3F	; 63
     ac8:	c5 01       	movw	r24, r10
     aca:	b4 01       	movw	r22, r8
     acc:	0e 94 e1 0f 	call	0x1fc2	; 0x1fc2 <__gesf2>
     ad0:	88 23       	and	r24, r24
     ad2:	cc f1       	brlt	.+114    	; 0xb46 <__stack+0x247>
     ad4:	20 e0       	ldi	r18, 0x00	; 0
     ad6:	30 e0       	ldi	r19, 0x00	; 0
     ad8:	40 e0       	ldi	r20, 0x00	; 0
     ada:	5f e3       	ldi	r21, 0x3F	; 63
     adc:	c7 01       	movw	r24, r14
     ade:	b6 01       	movw	r22, r12
     ae0:	0e 94 b0 0e 	call	0x1d60	; 0x1d60 <__subsf3>
     ae4:	6f 87       	std	Y+15, r22	; 0x0f
     ae6:	78 8b       	std	Y+16, r23	; 0x10
     ae8:	89 8b       	std	Y+17, r24	; 0x11
     aea:	9a 8b       	std	Y+18, r25	; 0x12
     aec:	20 e0       	ldi	r18, 0x00	; 0
     aee:	30 e0       	ldi	r19, 0x00	; 0
     af0:	40 e0       	ldi	r20, 0x00	; 0
     af2:	5f e3       	ldi	r21, 0x3F	; 63
     af4:	c5 01       	movw	r24, r10
     af6:	b4 01       	movw	r22, r8
     af8:	0e 94 b0 0e 	call	0x1d60	; 0x1d60 <__subsf3>
     afc:	6f 8b       	std	Y+23, r22	; 0x17
     afe:	78 8f       	std	Y+24, r23	; 0x18
     b00:	89 8f       	std	Y+25, r24	; 0x19
     b02:	9a 8f       	std	Y+26, r25	; 0x1a
     b04:	26 e6       	ldi	r18, 0x66	; 102
     b06:	36 e6       	ldi	r19, 0x66	; 102
     b08:	46 e0       	ldi	r20, 0x06	; 6
     b0a:	50 e4       	ldi	r21, 0x40	; 64
     b0c:	6c 8d       	ldd	r22, Y+28	; 0x1c
     b0e:	7d 8d       	ldd	r23, Y+29	; 0x1d
     b10:	8e 8d       	ldd	r24, Y+30	; 0x1e
     b12:	9f 8d       	ldd	r25, Y+31	; 0x1f
     b14:	0e 94 b1 0e 	call	0x1d62	; 0x1d62 <__addsf3>
     b18:	6c 8f       	std	Y+28, r22	; 0x1c
     b1a:	7d 8f       	std	Y+29, r23	; 0x1d
     b1c:	8e 8f       	std	Y+30, r24	; 0x1e
     b1e:	9f 8f       	std	Y+31, r25	; 0x1f
     b20:	88 81       	ld	r24, Y
     b22:	88 23       	and	r24, r24
     b24:	69 f0       	breq	.+26     	; 0xb40 <__stack+0x241>
     b26:	6c ec       	ldi	r22, 0xCC	; 204
     b28:	71 e0       	ldi	r23, 0x01	; 1
     b2a:	7e 01       	movw	r14, r28
     b2c:	b2 e0       	ldi	r27, 0x02	; 2
     b2e:	eb 0e       	add	r14, r27
     b30:	f1 1c       	adc	r15, r1
     b32:	c7 01       	movw	r24, r14
     b34:	0e 94 42 0e 	call	0x1c84	; 0x1c84 <_ZN6Serial8transmitEPc>
     b38:	6d e0       	ldi	r22, 0x0D	; 13
     b3a:	c7 01       	movw	r24, r14
     b3c:	0e 94 4f 0e 	call	0x1c9e	; 0x1c9e <_ZN6Serial12transmitCharEc>
     b40:	81 e0       	ldi	r24, 0x01	; 1
     b42:	89 83       	std	Y+1, r24	; 0x01
     b44:	04 c0       	rjmp	.+8      	; 0xb4e <__stack+0x24f>
     b46:	19 82       	std	Y+1, r1	; 0x01
     b48:	ce 01       	movw	r24, r28
     b4a:	0e 94 c8 01 	call	0x390	; 0x390 <_ZN10DrinkMaker21show_avaliable_drinksEv>
     b4e:	df 91       	pop	r29
     b50:	cf 91       	pop	r28
     b52:	ff 90       	pop	r15
     b54:	ef 90       	pop	r14
     b56:	df 90       	pop	r13
     b58:	cf 90       	pop	r12
     b5a:	bf 90       	pop	r11
     b5c:	af 90       	pop	r10
     b5e:	9f 90       	pop	r9
     b60:	8f 90       	pop	r8
     b62:	7f 90       	pop	r7
     b64:	6f 90       	pop	r6
     b66:	5f 90       	pop	r5
     b68:	4f 90       	pop	r4
     b6a:	08 95       	ret

00000b6c <_ZN10DrinkMaker26show_remaining_ingredientsEv>:
     b6c:	2f 92       	push	r2
     b6e:	3f 92       	push	r3
     b70:	4f 92       	push	r4
     b72:	5f 92       	push	r5
     b74:	6f 92       	push	r6
     b76:	7f 92       	push	r7
     b78:	8f 92       	push	r8
     b7a:	9f 92       	push	r9
     b7c:	af 92       	push	r10
     b7e:	bf 92       	push	r11
     b80:	cf 92       	push	r12
     b82:	df 92       	push	r13
     b84:	ef 92       	push	r14
     b86:	ff 92       	push	r15
     b88:	0f 93       	push	r16
     b8a:	1f 93       	push	r17
     b8c:	cf 93       	push	r28
     b8e:	df 93       	push	r29
     b90:	cd b7       	in	r28, 0x3d	; 61
     b92:	de b7       	in	r29, 0x3e	; 62
     b94:	2a 97       	sbiw	r28, 0x0a	; 10
     b96:	0f b6       	in	r0, 0x3f	; 63
     b98:	f8 94       	cli
     b9a:	de bf       	out	0x3e, r29	; 62
     b9c:	0f be       	out	0x3f, r0	; 63
     b9e:	cd bf       	out	0x3d, r28	; 61
     ba0:	1c 01       	movw	r2, r24
     ba2:	8c 01       	movw	r16, r24
     ba4:	0e 5f       	subi	r16, 0xFE	; 254
     ba6:	1f 4f       	sbci	r17, 0xFF	; 255
     ba8:	6d e0       	ldi	r22, 0x0D	; 13
     baa:	c8 01       	movw	r24, r16
     bac:	0e 94 4f 0e 	call	0x1c9e	; 0x1c9e <_ZN6Serial12transmitCharEc>
     bb0:	62 ee       	ldi	r22, 0xE2	; 226
     bb2:	71 e0       	ldi	r23, 0x01	; 1
     bb4:	c8 01       	movw	r24, r16
     bb6:	0e 94 42 0e 	call	0x1c84	; 0x1c84 <_ZN6Serial8transmitEPc>
     bba:	f1 01       	movw	r30, r2
     bbc:	87 84       	ldd	r8, Z+15	; 0x0f
     bbe:	90 88       	ldd	r9, Z+16	; 0x10
     bc0:	a1 88       	ldd	r10, Z+17	; 0x11
     bc2:	b2 88       	ldd	r11, Z+18	; 0x12
     bc4:	c5 01       	movw	r24, r10
     bc6:	b4 01       	movw	r22, r8
     bc8:	0e 94 1d 0f 	call	0x1e3a	; 0x1e3a <__fixsfsi>
     bcc:	6b 01       	movw	r12, r22
     bce:	7c 01       	movw	r14, r24
     bd0:	07 2e       	mov	r0, r23
     bd2:	00 0c       	add	r0, r0
     bd4:	88 0b       	sbc	r24, r24
     bd6:	99 0b       	sbc	r25, r25
     bd8:	0e 94 55 0f 	call	0x1eaa	; 0x1eaa <__floatsisf>
     bdc:	9b 01       	movw	r18, r22
     bde:	ac 01       	movw	r20, r24
     be0:	c5 01       	movw	r24, r10
     be2:	b4 01       	movw	r22, r8
     be4:	0e 94 b0 0e 	call	0x1d60	; 0x1d60 <__subsf3>
     be8:	20 e0       	ldi	r18, 0x00	; 0
     bea:	30 e0       	ldi	r19, 0x00	; 0
     bec:	48 ec       	ldi	r20, 0xC8	; 200
     bee:	52 e4       	ldi	r21, 0x42	; 66
     bf0:	0e 94 e6 0f 	call	0x1fcc	; 0x1fcc <__mulsf3>
     bf4:	0e 94 53 10 	call	0x20a6	; 0x20a6 <trunc>
     bf8:	0e 94 1d 0f 	call	0x1e3a	; 0x1e3a <__fixsfsi>
     bfc:	7f 93       	push	r23
     bfe:	6f 93       	push	r22
     c00:	df 92       	push	r13
     c02:	cf 92       	push	r12
     c04:	0f 2e       	mov	r0, r31
     c06:	fb e1       	ldi	r31, 0x1B	; 27
     c08:	cf 2e       	mov	r12, r31
     c0a:	f2 e0       	ldi	r31, 0x02	; 2
     c0c:	df 2e       	mov	r13, r31
     c0e:	f0 2d       	mov	r31, r0
     c10:	df 92       	push	r13
     c12:	cf 92       	push	r12
     c14:	ce 01       	movw	r24, r28
     c16:	01 96       	adiw	r24, 0x01	; 1
     c18:	7c 01       	movw	r14, r24
     c1a:	9f 93       	push	r25
     c1c:	8f 93       	push	r24
     c1e:	0e 94 eb 10 	call	0x21d6	; 0x21d6 <sprintf>
     c22:	b7 01       	movw	r22, r14
     c24:	c8 01       	movw	r24, r16
     c26:	0e 94 42 0e 	call	0x1c84	; 0x1c84 <_ZN6Serial8transmitEPc>
     c2a:	6d e0       	ldi	r22, 0x0D	; 13
     c2c:	c8 01       	movw	r24, r16
     c2e:	0e 94 4f 0e 	call	0x1c9e	; 0x1c9e <_ZN6Serial12transmitCharEc>
     c32:	62 ef       	ldi	r22, 0xF2	; 242
     c34:	71 e0       	ldi	r23, 0x01	; 1
     c36:	c8 01       	movw	r24, r16
     c38:	0e 94 42 0e 	call	0x1c84	; 0x1c84 <_ZN6Serial8transmitEPc>
     c3c:	f1 01       	movw	r30, r2
     c3e:	43 88       	ldd	r4, Z+19	; 0x13
     c40:	54 88       	ldd	r5, Z+20	; 0x14
     c42:	65 88       	ldd	r6, Z+21	; 0x15
     c44:	76 88       	ldd	r7, Z+22	; 0x16
     c46:	c3 01       	movw	r24, r6
     c48:	b2 01       	movw	r22, r4
     c4a:	0e 94 1d 0f 	call	0x1e3a	; 0x1e3a <__fixsfsi>
     c4e:	4b 01       	movw	r8, r22
     c50:	5c 01       	movw	r10, r24
     c52:	07 2e       	mov	r0, r23
     c54:	00 0c       	add	r0, r0
     c56:	88 0b       	sbc	r24, r24
     c58:	99 0b       	sbc	r25, r25
     c5a:	0e 94 55 0f 	call	0x1eaa	; 0x1eaa <__floatsisf>
     c5e:	9b 01       	movw	r18, r22
     c60:	ac 01       	movw	r20, r24
     c62:	c3 01       	movw	r24, r6
     c64:	b2 01       	movw	r22, r4
     c66:	0e 94 b0 0e 	call	0x1d60	; 0x1d60 <__subsf3>
     c6a:	20 e0       	ldi	r18, 0x00	; 0
     c6c:	30 e0       	ldi	r19, 0x00	; 0
     c6e:	48 ec       	ldi	r20, 0xC8	; 200
     c70:	52 e4       	ldi	r21, 0x42	; 66
     c72:	0e 94 e6 0f 	call	0x1fcc	; 0x1fcc <__mulsf3>
     c76:	0e 94 53 10 	call	0x20a6	; 0x20a6 <trunc>
     c7a:	0e 94 1d 0f 	call	0x1e3a	; 0x1e3a <__fixsfsi>
     c7e:	7f 93       	push	r23
     c80:	6f 93       	push	r22
     c82:	9f 92       	push	r9
     c84:	8f 92       	push	r8
     c86:	df 92       	push	r13
     c88:	cf 92       	push	r12
     c8a:	ff 92       	push	r15
     c8c:	ef 92       	push	r14
     c8e:	0e 94 eb 10 	call	0x21d6	; 0x21d6 <sprintf>
     c92:	b7 01       	movw	r22, r14
     c94:	c8 01       	movw	r24, r16
     c96:	0e 94 42 0e 	call	0x1c84	; 0x1c84 <_ZN6Serial8transmitEPc>
     c9a:	6d e0       	ldi	r22, 0x0D	; 13
     c9c:	c8 01       	movw	r24, r16
     c9e:	0e 94 4f 0e 	call	0x1c9e	; 0x1c9e <_ZN6Serial12transmitCharEc>
     ca2:	63 e0       	ldi	r22, 0x03	; 3
     ca4:	72 e0       	ldi	r23, 0x02	; 2
     ca6:	c8 01       	movw	r24, r16
     ca8:	0e 94 42 0e 	call	0x1c84	; 0x1c84 <_ZN6Serial8transmitEPc>
     cac:	f1 01       	movw	r30, r2
     cae:	47 88       	ldd	r4, Z+23	; 0x17
     cb0:	50 8c       	ldd	r5, Z+24	; 0x18
     cb2:	61 8c       	ldd	r6, Z+25	; 0x19
     cb4:	72 8c       	ldd	r7, Z+26	; 0x1a
     cb6:	c3 01       	movw	r24, r6
     cb8:	b2 01       	movw	r22, r4
     cba:	0e 94 1d 0f 	call	0x1e3a	; 0x1e3a <__fixsfsi>
     cbe:	4b 01       	movw	r8, r22
     cc0:	5c 01       	movw	r10, r24
     cc2:	07 2e       	mov	r0, r23
     cc4:	00 0c       	add	r0, r0
     cc6:	88 0b       	sbc	r24, r24
     cc8:	99 0b       	sbc	r25, r25
     cca:	0e 94 55 0f 	call	0x1eaa	; 0x1eaa <__floatsisf>
     cce:	9b 01       	movw	r18, r22
     cd0:	ac 01       	movw	r20, r24
     cd2:	c3 01       	movw	r24, r6
     cd4:	b2 01       	movw	r22, r4
     cd6:	0e 94 b0 0e 	call	0x1d60	; 0x1d60 <__subsf3>
     cda:	20 e0       	ldi	r18, 0x00	; 0
     cdc:	30 e0       	ldi	r19, 0x00	; 0
     cde:	48 ec       	ldi	r20, 0xC8	; 200
     ce0:	52 e4       	ldi	r21, 0x42	; 66
     ce2:	0e 94 e6 0f 	call	0x1fcc	; 0x1fcc <__mulsf3>
     ce6:	0e 94 53 10 	call	0x20a6	; 0x20a6 <trunc>
     cea:	0e 94 1d 0f 	call	0x1e3a	; 0x1e3a <__fixsfsi>
     cee:	7f 93       	push	r23
     cf0:	6f 93       	push	r22
     cf2:	9f 92       	push	r9
     cf4:	8f 92       	push	r8
     cf6:	df 92       	push	r13
     cf8:	cf 92       	push	r12
     cfa:	ff 92       	push	r15
     cfc:	ef 92       	push	r14
     cfe:	0e 94 eb 10 	call	0x21d6	; 0x21d6 <sprintf>
     d02:	b7 01       	movw	r22, r14
     d04:	c8 01       	movw	r24, r16
     d06:	0e 94 42 0e 	call	0x1c84	; 0x1c84 <_ZN6Serial8transmitEPc>
     d0a:	6d e0       	ldi	r22, 0x0D	; 13
     d0c:	c8 01       	movw	r24, r16
     d0e:	0e 94 4f 0e 	call	0x1c9e	; 0x1c9e <_ZN6Serial12transmitCharEc>
     d12:	0f b6       	in	r0, 0x3f	; 63
     d14:	f8 94       	cli
     d16:	de bf       	out	0x3e, r29	; 62
     d18:	0f be       	out	0x3f, r0	; 63
     d1a:	cd bf       	out	0x3d, r28	; 61
     d1c:	2a 96       	adiw	r28, 0x0a	; 10
     d1e:	0f b6       	in	r0, 0x3f	; 63
     d20:	f8 94       	cli
     d22:	de bf       	out	0x3e, r29	; 62
     d24:	0f be       	out	0x3f, r0	; 63
     d26:	cd bf       	out	0x3d, r28	; 61
     d28:	df 91       	pop	r29
     d2a:	cf 91       	pop	r28
     d2c:	1f 91       	pop	r17
     d2e:	0f 91       	pop	r16
     d30:	ff 90       	pop	r15
     d32:	ef 90       	pop	r14
     d34:	df 90       	pop	r13
     d36:	cf 90       	pop	r12
     d38:	bf 90       	pop	r11
     d3a:	af 90       	pop	r10
     d3c:	9f 90       	pop	r9
     d3e:	8f 90       	pop	r8
     d40:	7f 90       	pop	r7
     d42:	6f 90       	pop	r6
     d44:	5f 90       	pop	r5
     d46:	4f 90       	pop	r4
     d48:	3f 90       	pop	r3
     d4a:	2f 90       	pop	r2
     d4c:	08 95       	ret

00000d4e <_ZN10DrinkMaker11show_profitEv>:
     d4e:	8f 92       	push	r8
     d50:	9f 92       	push	r9
     d52:	af 92       	push	r10
     d54:	bf 92       	push	r11
     d56:	cf 92       	push	r12
     d58:	df 92       	push	r13
     d5a:	ef 92       	push	r14
     d5c:	ff 92       	push	r15
     d5e:	0f 93       	push	r16
     d60:	1f 93       	push	r17
     d62:	cf 93       	push	r28
     d64:	df 93       	push	r29
     d66:	cd b7       	in	r28, 0x3d	; 61
     d68:	de b7       	in	r29, 0x3e	; 62
     d6a:	2a 97       	sbiw	r28, 0x0a	; 10
     d6c:	0f b6       	in	r0, 0x3f	; 63
     d6e:	f8 94       	cli
     d70:	de bf       	out	0x3e, r29	; 62
     d72:	0f be       	out	0x3f, r0	; 63
     d74:	cd bf       	out	0x3d, r28	; 61
     d76:	8c 01       	movw	r16, r24
     d78:	fc 01       	movw	r30, r24
     d7a:	84 8c       	ldd	r8, Z+28	; 0x1c
     d7c:	95 8c       	ldd	r9, Z+29	; 0x1d
     d7e:	a6 8c       	ldd	r10, Z+30	; 0x1e
     d80:	b7 8c       	ldd	r11, Z+31	; 0x1f
     d82:	c5 01       	movw	r24, r10
     d84:	b4 01       	movw	r22, r8
     d86:	0e 94 1d 0f 	call	0x1e3a	; 0x1e3a <__fixsfsi>
     d8a:	6b 01       	movw	r12, r22
     d8c:	7c 01       	movw	r14, r24
     d8e:	07 2e       	mov	r0, r23
     d90:	00 0c       	add	r0, r0
     d92:	88 0b       	sbc	r24, r24
     d94:	99 0b       	sbc	r25, r25
     d96:	0e 94 55 0f 	call	0x1eaa	; 0x1eaa <__floatsisf>
     d9a:	9b 01       	movw	r18, r22
     d9c:	ac 01       	movw	r20, r24
     d9e:	c5 01       	movw	r24, r10
     da0:	b4 01       	movw	r22, r8
     da2:	0e 94 b0 0e 	call	0x1d60	; 0x1d60 <__subsf3>
     da6:	20 e0       	ldi	r18, 0x00	; 0
     da8:	30 e0       	ldi	r19, 0x00	; 0
     daa:	48 ec       	ldi	r20, 0xC8	; 200
     dac:	52 e4       	ldi	r21, 0x42	; 66
     dae:	0e 94 e6 0f 	call	0x1fcc	; 0x1fcc <__mulsf3>
     db2:	0e 94 53 10 	call	0x20a6	; 0x20a6 <trunc>
     db6:	0e 94 1d 0f 	call	0x1e3a	; 0x1e3a <__fixsfsi>
     dba:	7f 93       	push	r23
     dbc:	6f 93       	push	r22
     dbe:	df 92       	push	r13
     dc0:	cf 92       	push	r12
     dc2:	88 e1       	ldi	r24, 0x18	; 24
     dc4:	92 e0       	ldi	r25, 0x02	; 2
     dc6:	9f 93       	push	r25
     dc8:	8f 93       	push	r24
     dca:	ce 01       	movw	r24, r28
     dcc:	01 96       	adiw	r24, 0x01	; 1
     dce:	7c 01       	movw	r14, r24
     dd0:	9f 93       	push	r25
     dd2:	8f 93       	push	r24
     dd4:	0e 94 eb 10 	call	0x21d6	; 0x21d6 <sprintf>
     dd8:	0e 5f       	subi	r16, 0xFE	; 254
     dda:	1f 4f       	sbci	r17, 0xFF	; 255
     ddc:	63 e2       	ldi	r22, 0x23	; 35
     dde:	72 e0       	ldi	r23, 0x02	; 2
     de0:	c8 01       	movw	r24, r16
     de2:	0e 94 42 0e 	call	0x1c84	; 0x1c84 <_ZN6Serial8transmitEPc>
     de6:	b7 01       	movw	r22, r14
     de8:	c8 01       	movw	r24, r16
     dea:	0e 94 42 0e 	call	0x1c84	; 0x1c84 <_ZN6Serial8transmitEPc>
     dee:	6d e0       	ldi	r22, 0x0D	; 13
     df0:	c8 01       	movw	r24, r16
     df2:	0e 94 4f 0e 	call	0x1c9e	; 0x1c9e <_ZN6Serial12transmitCharEc>
     df6:	0f b6       	in	r0, 0x3f	; 63
     df8:	f8 94       	cli
     dfa:	de bf       	out	0x3e, r29	; 62
     dfc:	0f be       	out	0x3f, r0	; 63
     dfe:	cd bf       	out	0x3d, r28	; 61
     e00:	2a 96       	adiw	r28, 0x0a	; 10
     e02:	0f b6       	in	r0, 0x3f	; 63
     e04:	f8 94       	cli
     e06:	de bf       	out	0x3e, r29	; 62
     e08:	0f be       	out	0x3f, r0	; 63
     e0a:	cd bf       	out	0x3d, r28	; 61
     e0c:	df 91       	pop	r29
     e0e:	cf 91       	pop	r28
     e10:	1f 91       	pop	r17
     e12:	0f 91       	pop	r16
     e14:	ff 90       	pop	r15
     e16:	ef 90       	pop	r14
     e18:	df 90       	pop	r13
     e1a:	cf 90       	pop	r12
     e1c:	bf 90       	pop	r11
     e1e:	af 90       	pop	r10
     e20:	9f 90       	pop	r9
     e22:	8f 90       	pop	r8
     e24:	08 95       	ret

00000e26 <_ZN10DrinkMaker10millCoffeeEv>:
     e26:	0f 93       	push	r16
     e28:	1f 93       	push	r17
     e2a:	cf 93       	push	r28
     e2c:	df 93       	push	r29
     e2e:	8c 01       	movw	r16, r24
     e30:	ec 01       	movw	r28, r24
     e32:	2e 96       	adiw	r28, 0x0e	; 14
     e34:	66 e3       	ldi	r22, 0x36	; 54
     e36:	72 e0       	ldi	r23, 0x02	; 2
     e38:	ce 01       	movw	r24, r28
     e3a:	0e 94 21 09 	call	0x1242	; 0x1242 <_ZN3LCD5writeEPc>
     e3e:	62 e0       	ldi	r22, 0x02	; 2
     e40:	ce 01       	movw	r24, r28
     e42:	0e 94 35 09 	call	0x126a	; 0x126a <_ZN3LCD16setCursor_inLineEh>
     e46:	60 e4       	ldi	r22, 0x40	; 64
     e48:	72 e0       	ldi	r23, 0x02	; 2
     e4a:	ce 01       	movw	r24, r28
     e4c:	0e 94 21 09 	call	0x1242	; 0x1242 <_ZN3LCD5writeEPc>
     e50:	c8 01       	movw	r24, r16
     e52:	07 96       	adiw	r24, 0x07	; 7
     e54:	0e 94 52 0d 	call	0x1aa4	; 0x1aa4 <_ZN5Motor6turnOnEv>
     e58:	df 91       	pop	r29
     e5a:	cf 91       	pop	r28
     e5c:	1f 91       	pop	r17
     e5e:	0f 91       	pop	r16
     e60:	08 95       	ret

00000e62 <_ZN10DrinkMaker10openValvesEPVh>:
}

void DrinkMaker::openValves(volatile unsigned char *drink_index)
{
     e62:	0f 93       	push	r16
     e64:	1f 93       	push	r17
     e66:	cf 93       	push	r28
     e68:	df 93       	push	r29
     e6a:	ec 01       	movw	r28, r24
     e6c:	8b 01       	movw	r16, r22
	lcd.write("Servindo");
     e6e:	68 e4       	ldi	r22, 0x48	; 72
     e70:	72 e0       	ldi	r23, 0x02	; 2
     e72:	0e 96       	adiw	r24, 0x0e	; 14
     e74:	0e 94 21 09 	call	0x1242	; 0x1242 <_ZN3LCD5writeEPc>
	switch(*drink_index){
     e78:	d8 01       	movw	r26, r16
     e7a:	ec 91       	ld	r30, X
     e7c:	8e 2f       	mov	r24, r30
     e7e:	90 e0       	ldi	r25, 0x00	; 0
     e80:	fc 01       	movw	r30, r24
     e82:	31 97       	sbiw	r30, 0x01	; 1
     e84:	e7 30       	cpi	r30, 0x07	; 7
     e86:	f1 05       	cpc	r31, r1
     e88:	d0 f5       	brcc	.+116    	; 0xefe <_ZN10DrinkMaker10openValvesEPVh+0x9c>
     e8a:	ed 5b       	subi	r30, 0xBD	; 189
     e8c:	ff 4f       	sbci	r31, 0xFF	; 255
     e8e:	0c 94 e5 10 	jmp	0x21ca	; 0x21ca <__tablejump2__>
		case 1:
		coffee_valve.turnOn();
     e92:	ce 01       	movw	r24, r28
     e94:	08 96       	adiw	r24, 0x08	; 8
     e96:	0e 94 92 0e 	call	0x1d24	; 0x1d24 <_ZN5Valve6turnOnEv>
		break;
     e9a:	31 c0       	rjmp	.+98     	; 0xefe <_ZN10DrinkMaker10openValvesEPVh+0x9c>
		
		case 2:
		coffee_valve.turnOn();
     e9c:	ce 01       	movw	r24, r28
     e9e:	08 96       	adiw	r24, 0x08	; 8
     ea0:	0e 94 92 0e 	call	0x1d24	; 0x1d24 <_ZN5Valve6turnOnEv>
		milk_valve.turnOn();
     ea4:	ce 01       	movw	r24, r28
     ea6:	0a 96       	adiw	r24, 0x0a	; 10
     ea8:	0e 94 92 0e 	call	0x1d24	; 0x1d24 <_ZN5Valve6turnOnEv>
		break;
     eac:	28 c0       	rjmp	.+80     	; 0xefe <_ZN10DrinkMaker10openValvesEPVh+0x9c>
		
		case 3:
		coffee_valve.turnOn();
     eae:	ce 01       	movw	r24, r28
     eb0:	08 96       	adiw	r24, 0x08	; 8
     eb2:	0e 94 92 0e 	call	0x1d24	; 0x1d24 <_ZN5Valve6turnOnEv>
		milk_valve.turnOn();
     eb6:	ce 01       	movw	r24, r28
     eb8:	0a 96       	adiw	r24, 0x0a	; 10
     eba:	0e 94 92 0e 	call	0x1d24	; 0x1d24 <_ZN5Valve6turnOnEv>
		chocolate_valve.turnOn();
     ebe:	ce 01       	movw	r24, r28
     ec0:	0c 96       	adiw	r24, 0x0c	; 12
     ec2:	0e 94 92 0e 	call	0x1d24	; 0x1d24 <_ZN5Valve6turnOnEv>
		break;
     ec6:	1b c0       	rjmp	.+54     	; 0xefe <_ZN10DrinkMaker10openValvesEPVh+0x9c>
		
		case 4:
		milk_valve.turnOn();
     ec8:	ce 01       	movw	r24, r28
     eca:	0a 96       	adiw	r24, 0x0a	; 10
     ecc:	0e 94 92 0e 	call	0x1d24	; 0x1d24 <_ZN5Valve6turnOnEv>
		break;
     ed0:	16 c0       	rjmp	.+44     	; 0xefe <_ZN10DrinkMaker10openValvesEPVh+0x9c>
		
		case 5:
		milk_valve.turnOn();
     ed2:	ce 01       	movw	r24, r28
     ed4:	0a 96       	adiw	r24, 0x0a	; 10
     ed6:	0e 94 92 0e 	call	0x1d24	; 0x1d24 <_ZN5Valve6turnOnEv>
		chocolate_valve.turnOn();
     eda:	ce 01       	movw	r24, r28
     edc:	0c 96       	adiw	r24, 0x0c	; 12
     ede:	0e 94 92 0e 	call	0x1d24	; 0x1d24 <_ZN5Valve6turnOnEv>
		break;
     ee2:	0d c0       	rjmp	.+26     	; 0xefe <_ZN10DrinkMaker10openValvesEPVh+0x9c>
		
		case 6:
		chocolate_valve.turnOn();
     ee4:	ce 01       	movw	r24, r28
     ee6:	0c 96       	adiw	r24, 0x0c	; 12
     ee8:	0e 94 92 0e 	call	0x1d24	; 0x1d24 <_ZN5Valve6turnOnEv>
		break;
     eec:	08 c0       	rjmp	.+16     	; 0xefe <_ZN10DrinkMaker10openValvesEPVh+0x9c>
		
		case 7:
		coffee_valve.turnOn();
     eee:	ce 01       	movw	r24, r28
     ef0:	08 96       	adiw	r24, 0x08	; 8
     ef2:	0e 94 92 0e 	call	0x1d24	; 0x1d24 <_ZN5Valve6turnOnEv>
		chocolate_valve.turnOn();
     ef6:	ce 01       	movw	r24, r28
     ef8:	0c 96       	adiw	r24, 0x0c	; 12
     efa:	0e 94 92 0e 	call	0x1d24	; 0x1d24 <_ZN5Valve6turnOnEv>
		break;
	}
}
     efe:	df 91       	pop	r29
     f00:	cf 91       	pop	r28
     f02:	1f 91       	pop	r17
     f04:	0f 91       	pop	r16
     f06:	08 95       	ret

00000f08 <_ZN10DrinkMaker11closeValvesEv>:

void DrinkMaker::closeValves()
{
     f08:	cf 93       	push	r28
     f0a:	df 93       	push	r29
     f0c:	ec 01       	movw	r28, r24
	coffee_valve.turnOff();
     f0e:	08 96       	adiw	r24, 0x08	; 8
     f10:	0e 94 a1 0e 	call	0x1d42	; 0x1d42 <_ZN5Valve7turnOffEv>
	milk_valve.turnOff();
     f14:	ce 01       	movw	r24, r28
     f16:	0a 96       	adiw	r24, 0x0a	; 10
     f18:	0e 94 a1 0e 	call	0x1d42	; 0x1d42 <_ZN5Valve7turnOffEv>
	chocolate_valve.turnOff();
     f1c:	ce 01       	movw	r24, r28
     f1e:	0c 96       	adiw	r24, 0x0c	; 12
     f20:	0e 94 a1 0e 	call	0x1d42	; 0x1d42 <_ZN5Valve7turnOffEv>
}
     f24:	df 91       	pop	r29
     f26:	cf 91       	pop	r28
     f28:	08 95       	ret

00000f2a <_ZN10DrinkMaker14drinkHasCoffeeEPVh>:

bool DrinkMaker::drinkHasCoffee(volatile unsigned char *drink_index)
{
	switch(*drink_index){
     f2a:	fb 01       	movw	r30, r22
     f2c:	80 81       	ld	r24, Z
     f2e:	87 30       	cpi	r24, 0x07	; 7
     f30:	28 f4       	brcc	.+10     	; 0xf3c <_ZN10DrinkMaker14drinkHasCoffeeEPVh+0x12>
     f32:	84 30       	cpi	r24, 0x04	; 4
     f34:	40 f4       	brcc	.+16     	; 0xf46 <_ZN10DrinkMaker14drinkHasCoffeeEPVh+0x1c>
     f36:	81 30       	cpi	r24, 0x01	; 1
     f38:	18 f0       	brcs	.+6      	; 0xf40 <_ZN10DrinkMaker14drinkHasCoffeeEPVh+0x16>
     f3a:	03 c0       	rjmp	.+6      	; 0xf42 <_ZN10DrinkMaker14drinkHasCoffeeEPVh+0x18>
     f3c:	87 30       	cpi	r24, 0x07	; 7
     f3e:	09 f0       	breq	.+2      	; 0xf42 <_ZN10DrinkMaker14drinkHasCoffeeEPVh+0x18>
		
		case 7:
		return true;
		break;
	}
}
     f40:	08 95       	ret

bool DrinkMaker::drinkHasCoffee(volatile unsigned char *drink_index)
{
	switch(*drink_index){
		case 1:
		return true;
     f42:	81 e0       	ldi	r24, 0x01	; 1
     f44:	08 95       	ret
		case 3:
		return true;
		break;
		
		case 4:
		return false;
     f46:	80 e0       	ldi	r24, 0x00	; 0
		
		case 7:
		return true;
		break;
	}
}
     f48:	08 95       	ret

00000f4a <_ZN10DrinkMaker9updateLCDEPVh>:

void DrinkMaker::updateLCD(volatile unsigned char *drink_index)
{
     f4a:	cf 93       	push	r28
     f4c:	df 93       	push	r29
	switch(*drink_index){
     f4e:	db 01       	movw	r26, r22
     f50:	ec 91       	ld	r30, X
     f52:	4e 2f       	mov	r20, r30
     f54:	50 e0       	ldi	r21, 0x00	; 0
     f56:	fa 01       	movw	r30, r20
     f58:	31 97       	sbiw	r30, 0x01	; 1
     f5a:	e7 30       	cpi	r30, 0x07	; 7
     f5c:	f1 05       	cpc	r31, r1
     f5e:	08 f0       	brcs	.+2      	; 0xf62 <_ZN10DrinkMaker9updateLCDEPVh+0x18>
     f60:	8f c0       	rjmp	.+286    	; 0x1080 <_ZN10DrinkMaker9updateLCDEPVh+0x136>
     f62:	e6 5b       	subi	r30, 0xB6	; 182
     f64:	ff 4f       	sbci	r31, 0xFF	; 255
     f66:	0c 94 e5 10 	jmp	0x21ca	; 0x21ca <__tablejump2__>
		case 1:
		lcd.clear();
     f6a:	ec 01       	movw	r28, r24
     f6c:	2e 96       	adiw	r28, 0x0e	; 14
     f6e:	ce 01       	movw	r24, r28
     f70:	0e 94 44 09 	call	0x1288	; 0x1288 <_ZN3LCD5clearEv>
		lcd.write("Cafe Puro");
     f74:	61 e5       	ldi	r22, 0x51	; 81
     f76:	72 e0       	ldi	r23, 0x02	; 2
     f78:	ce 01       	movw	r24, r28
     f7a:	0e 94 21 09 	call	0x1242	; 0x1242 <_ZN3LCD5writeEPc>
		lcd.setCursor_inLine(2);
     f7e:	62 e0       	ldi	r22, 0x02	; 2
     f80:	ce 01       	movw	r24, r28
     f82:	0e 94 35 09 	call	0x126a	; 0x126a <_ZN3LCD16setCursor_inLineEh>
		lcd.write("R$ 1.50");
     f86:	6b e5       	ldi	r22, 0x5B	; 91
     f88:	72 e0       	ldi	r23, 0x02	; 2
     f8a:	ce 01       	movw	r24, r28
     f8c:	0e 94 21 09 	call	0x1242	; 0x1242 <_ZN3LCD5writeEPc>
		break;
     f90:	77 c0       	rjmp	.+238    	; 0x1080 <_ZN10DrinkMaker9updateLCDEPVh+0x136>
		
		case 2:
		lcd.clear();
     f92:	ec 01       	movw	r28, r24
     f94:	2e 96       	adiw	r28, 0x0e	; 14
     f96:	ce 01       	movw	r24, r28
     f98:	0e 94 44 09 	call	0x1288	; 0x1288 <_ZN3LCD5clearEv>
		lcd.write("Macchiato");
     f9c:	63 e6       	ldi	r22, 0x63	; 99
     f9e:	72 e0       	ldi	r23, 0x02	; 2
     fa0:	ce 01       	movw	r24, r28
     fa2:	0e 94 21 09 	call	0x1242	; 0x1242 <_ZN3LCD5writeEPc>
		lcd.setCursor_inLine(2);
     fa6:	62 e0       	ldi	r22, 0x02	; 2
     fa8:	ce 01       	movw	r24, r28
     faa:	0e 94 35 09 	call	0x126a	; 0x126a <_ZN3LCD16setCursor_inLineEh>
		lcd.write("R$ 2.00");
     fae:	6d e6       	ldi	r22, 0x6D	; 109
     fb0:	72 e0       	ldi	r23, 0x02	; 2
     fb2:	ce 01       	movw	r24, r28
     fb4:	0e 94 21 09 	call	0x1242	; 0x1242 <_ZN3LCD5writeEPc>
		break;
     fb8:	63 c0       	rjmp	.+198    	; 0x1080 <_ZN10DrinkMaker9updateLCDEPVh+0x136>
		
		case 3:
		lcd.clear();
     fba:	ec 01       	movw	r28, r24
     fbc:	2e 96       	adiw	r28, 0x0e	; 14
     fbe:	ce 01       	movw	r24, r28
     fc0:	0e 94 44 09 	call	0x1288	; 0x1288 <_ZN3LCD5clearEv>
		lcd.write("Mocha");
     fc4:	65 e7       	ldi	r22, 0x75	; 117
     fc6:	72 e0       	ldi	r23, 0x02	; 2
     fc8:	ce 01       	movw	r24, r28
     fca:	0e 94 21 09 	call	0x1242	; 0x1242 <_ZN3LCD5writeEPc>
		lcd.setCursor_inLine(2);
     fce:	62 e0       	ldi	r22, 0x02	; 2
     fd0:	ce 01       	movw	r24, r28
     fd2:	0e 94 35 09 	call	0x126a	; 0x126a <_ZN3LCD16setCursor_inLineEh>
		lcd.write("R$ 2.75");
     fd6:	6b e7       	ldi	r22, 0x7B	; 123
     fd8:	72 e0       	ldi	r23, 0x02	; 2
     fda:	ce 01       	movw	r24, r28
     fdc:	0e 94 21 09 	call	0x1242	; 0x1242 <_ZN3LCD5writeEPc>
		break;
     fe0:	4f c0       	rjmp	.+158    	; 0x1080 <_ZN10DrinkMaker9updateLCDEPVh+0x136>
		
		case 4:
		lcd.clear();
     fe2:	ec 01       	movw	r28, r24
     fe4:	2e 96       	adiw	r28, 0x0e	; 14
     fe6:	ce 01       	movw	r24, r28
     fe8:	0e 94 44 09 	call	0x1288	; 0x1288 <_ZN3LCD5clearEv>
		lcd.write("Leite Puro");
     fec:	63 e8       	ldi	r22, 0x83	; 131
     fee:	72 e0       	ldi	r23, 0x02	; 2
     ff0:	ce 01       	movw	r24, r28
     ff2:	0e 94 21 09 	call	0x1242	; 0x1242 <_ZN3LCD5writeEPc>
		lcd.setCursor_inLine(2);
     ff6:	62 e0       	ldi	r22, 0x02	; 2
     ff8:	ce 01       	movw	r24, r28
     ffa:	0e 94 35 09 	call	0x126a	; 0x126a <_ZN3LCD16setCursor_inLineEh>
		lcd.write("R$ 1.00");
     ffe:	6e e8       	ldi	r22, 0x8E	; 142
    1000:	72 e0       	ldi	r23, 0x02	; 2
    1002:	ce 01       	movw	r24, r28
    1004:	0e 94 21 09 	call	0x1242	; 0x1242 <_ZN3LCD5writeEPc>
		break;
    1008:	3b c0       	rjmp	.+118    	; 0x1080 <_ZN10DrinkMaker9updateLCDEPVh+0x136>
		
		case 5:
		lcd.clear();
    100a:	ec 01       	movw	r28, r24
    100c:	2e 96       	adiw	r28, 0x0e	; 14
    100e:	ce 01       	movw	r24, r28
    1010:	0e 94 44 09 	call	0x1288	; 0x1288 <_ZN3LCD5clearEv>
		lcd.write("Achocolatado");
    1014:	66 e9       	ldi	r22, 0x96	; 150
    1016:	72 e0       	ldi	r23, 0x02	; 2
    1018:	ce 01       	movw	r24, r28
    101a:	0e 94 21 09 	call	0x1242	; 0x1242 <_ZN3LCD5writeEPc>
		lcd.setCursor_inLine(2);
    101e:	62 e0       	ldi	r22, 0x02	; 2
    1020:	ce 01       	movw	r24, r28
    1022:	0e 94 35 09 	call	0x126a	; 0x126a <_ZN3LCD16setCursor_inLineEh>
		lcd.write("R$ 1.80");
    1026:	63 ea       	ldi	r22, 0xA3	; 163
    1028:	72 e0       	ldi	r23, 0x02	; 2
    102a:	ce 01       	movw	r24, r28
    102c:	0e 94 21 09 	call	0x1242	; 0x1242 <_ZN3LCD5writeEPc>
		break;
    1030:	27 c0       	rjmp	.+78     	; 0x1080 <_ZN10DrinkMaker9updateLCDEPVh+0x136>
		
		case 6:
		lcd.clear();
    1032:	ec 01       	movw	r28, r24
    1034:	2e 96       	adiw	r28, 0x0e	; 14
    1036:	ce 01       	movw	r24, r28
    1038:	0e 94 44 09 	call	0x1288	; 0x1288 <_ZN3LCD5clearEv>
		lcd.write("Chocolate");
    103c:	6b ea       	ldi	r22, 0xAB	; 171
    103e:	72 e0       	ldi	r23, 0x02	; 2
    1040:	ce 01       	movw	r24, r28
    1042:	0e 94 21 09 	call	0x1242	; 0x1242 <_ZN3LCD5writeEPc>
		lcd.setCursor_inLine(2);
    1046:	62 e0       	ldi	r22, 0x02	; 2
    1048:	ce 01       	movw	r24, r28
    104a:	0e 94 35 09 	call	0x126a	; 0x126a <_ZN3LCD16setCursor_inLineEh>
		lcd.write("R$ 1.50");
    104e:	6b e5       	ldi	r22, 0x5B	; 91
    1050:	72 e0       	ldi	r23, 0x02	; 2
    1052:	ce 01       	movw	r24, r28
    1054:	0e 94 21 09 	call	0x1242	; 0x1242 <_ZN3LCD5writeEPc>
		break;
    1058:	13 c0       	rjmp	.+38     	; 0x1080 <_ZN10DrinkMaker9updateLCDEPVh+0x136>
		
		case 7:
		lcd.clear();
    105a:	ec 01       	movw	r28, r24
    105c:	2e 96       	adiw	r28, 0x0e	; 14
    105e:	ce 01       	movw	r24, r28
    1060:	0e 94 44 09 	call	0x1288	; 0x1288 <_ZN3LCD5clearEv>
		lcd.write("Chocafe");
    1064:	65 eb       	ldi	r22, 0xB5	; 181
    1066:	72 e0       	ldi	r23, 0x02	; 2
    1068:	ce 01       	movw	r24, r28
    106a:	0e 94 21 09 	call	0x1242	; 0x1242 <_ZN3LCD5writeEPc>
		lcd.setCursor_inLine(2);
    106e:	62 e0       	ldi	r22, 0x02	; 2
    1070:	ce 01       	movw	r24, r28
    1072:	0e 94 35 09 	call	0x126a	; 0x126a <_ZN3LCD16setCursor_inLineEh>
		lcd.write("R$ 2.10");
    1076:	6d eb       	ldi	r22, 0xBD	; 189
    1078:	72 e0       	ldi	r23, 0x02	; 2
    107a:	ce 01       	movw	r24, r28
    107c:	0e 94 21 09 	call	0x1242	; 0x1242 <_ZN3LCD5writeEPc>
		break;
	}
    1080:	df 91       	pop	r29
    1082:	cf 91       	pop	r28
    1084:	08 95       	ret

00001086 <_ZN3LCDC1Ev>:
    1086:	8a b1       	in	r24, 0x0a	; 10
    1088:	80 61       	ori	r24, 0x10	; 16
    108a:	8a b9       	out	0x0a, r24	; 10
    108c:	8a b1       	in	r24, 0x0a	; 10
    108e:	80 62       	ori	r24, 0x20	; 32
    1090:	8a b9       	out	0x0a, r24	; 10
    1092:	8a b1       	in	r24, 0x0a	; 10
    1094:	80 64       	ori	r24, 0x40	; 64
    1096:	8a b9       	out	0x0a, r24	; 10
    1098:	8a b1       	in	r24, 0x0a	; 10
    109a:	80 68       	ori	r24, 0x80	; 128
    109c:	8a b9       	out	0x0a, r24	; 10
    109e:	84 b1       	in	r24, 0x04	; 4
    10a0:	81 60       	ori	r24, 0x01	; 1
    10a2:	84 b9       	out	0x04, r24	; 4
    10a4:	84 b1       	in	r24, 0x04	; 4
    10a6:	82 60       	ori	r24, 0x02	; 2
    10a8:	84 b9       	out	0x04, r24	; 4
    10aa:	08 95       	ret

000010ac <_ZN3LCDD1Ev>:
    10ac:	08 95       	ret

000010ae <_ZN3LCD7cmd_LCDEhc>:
    10ae:	41 11       	cpse	r20, r1
    10b0:	04 c0       	rjmp	.+8      	; 0x10ba <_ZN3LCD7cmd_LCDEhc+0xc>
    10b2:	85 b1       	in	r24, 0x05	; 5
    10b4:	8e 7f       	andi	r24, 0xFE	; 254
    10b6:	85 b9       	out	0x05, r24	; 5
    10b8:	03 c0       	rjmp	.+6      	; 0x10c0 <_ZN3LCD7cmd_LCDEhc+0x12>
    10ba:	85 b1       	in	r24, 0x05	; 5
    10bc:	81 60       	ori	r24, 0x01	; 1
    10be:	85 b9       	out	0x05, r24	; 5
    10c0:	8b b1       	in	r24, 0x0b	; 11
    10c2:	8f 70       	andi	r24, 0x0F	; 15
    10c4:	96 2f       	mov	r25, r22
    10c6:	90 7f       	andi	r25, 0xF0	; 240
    10c8:	89 2b       	or	r24, r25
    10ca:	8b b9       	out	0x0b, r24	; 11
    10cc:	35 e0       	ldi	r19, 0x05	; 5
    10ce:	3a 95       	dec	r19
    10d0:	f1 f7       	brne	.-4      	; 0x10ce <_ZN3LCD7cmd_LCDEhc+0x20>
    10d2:	00 00       	nop
    10d4:	85 b1       	in	r24, 0x05	; 5
    10d6:	82 60       	ori	r24, 0x02	; 2
    10d8:	85 b9       	out	0x05, r24	; 5
    10da:	85 e0       	ldi	r24, 0x05	; 5
    10dc:	8a 95       	dec	r24
    10de:	f1 f7       	brne	.-4      	; 0x10dc <_ZN3LCD7cmd_LCDEhc+0x2e>
    10e0:	00 00       	nop
    10e2:	85 b1       	in	r24, 0x05	; 5
    10e4:	8d 7f       	andi	r24, 0xFD	; 253
    10e6:	85 b9       	out	0x05, r24	; 5
    10e8:	90 ef       	ldi	r25, 0xF0	; 240
    10ea:	9a 95       	dec	r25
    10ec:	f1 f7       	brne	.-4      	; 0x10ea <_ZN3LCD7cmd_LCDEhc+0x3c>
    10ee:	2b b1       	in	r18, 0x0b	; 11
    10f0:	30 e1       	ldi	r19, 0x10	; 16
    10f2:	63 9f       	mul	r22, r19
    10f4:	c0 01       	movw	r24, r0
    10f6:	11 24       	eor	r1, r1
    10f8:	2f 70       	andi	r18, 0x0F	; 15
    10fa:	82 2b       	or	r24, r18
    10fc:	8b b9       	out	0x0b, r24	; 11
    10fe:	85 e0       	ldi	r24, 0x05	; 5
    1100:	8a 95       	dec	r24
    1102:	f1 f7       	brne	.-4      	; 0x1100 <_ZN3LCD7cmd_LCDEhc+0x52>
    1104:	00 00       	nop
    1106:	85 b1       	in	r24, 0x05	; 5
    1108:	82 60       	ori	r24, 0x02	; 2
    110a:	85 b9       	out	0x05, r24	; 5
    110c:	95 e0       	ldi	r25, 0x05	; 5
    110e:	9a 95       	dec	r25
    1110:	f1 f7       	brne	.-4      	; 0x110e <_ZN3LCD7cmd_LCDEhc+0x60>
    1112:	00 00       	nop
    1114:	85 b1       	in	r24, 0x05	; 5
    1116:	8d 7f       	andi	r24, 0xFD	; 253
    1118:	85 b9       	out	0x05, r24	; 5
    111a:	30 ef       	ldi	r19, 0xF0	; 240
    111c:	3a 95       	dec	r19
    111e:	f1 f7       	brne	.-4      	; 0x111c <_ZN3LCD7cmd_LCDEhc+0x6e>
    1120:	41 11       	cpse	r20, r1
    1122:	08 c0       	rjmp	.+16     	; 0x1134 <_ZN3LCD7cmd_LCDEhc+0x86>
    1124:	64 30       	cpi	r22, 0x04	; 4
    1126:	30 f4       	brcc	.+12     	; 0x1134 <_ZN3LCD7cmd_LCDEhc+0x86>
    1128:	8f e3       	ldi	r24, 0x3F	; 63
    112a:	9f e1       	ldi	r25, 0x1F	; 31
    112c:	01 97       	sbiw	r24, 0x01	; 1
    112e:	f1 f7       	brne	.-4      	; 0x112c <_ZN3LCD7cmd_LCDEhc+0x7e>
    1130:	00 c0       	rjmp	.+0      	; 0x1132 <_ZN3LCD7cmd_LCDEhc+0x84>
    1132:	00 00       	nop
    1134:	08 95       	ret

00001136 <_ZN3LCD4initEv>:
    1136:	cf 93       	push	r28
    1138:	df 93       	push	r29
    113a:	ec 01       	movw	r28, r24
    113c:	85 b1       	in	r24, 0x05	; 5
    113e:	8e 7f       	andi	r24, 0xFE	; 254
    1140:	85 b9       	out	0x05, r24	; 5
    1142:	85 b1       	in	r24, 0x05	; 5
    1144:	8d 7f       	andi	r24, 0xFD	; 253
    1146:	85 b9       	out	0x05, r24	; 5
    1148:	2f ef       	ldi	r18, 0xFF	; 255
    114a:	89 ef       	ldi	r24, 0xF9	; 249
    114c:	90 e0       	ldi	r25, 0x00	; 0
    114e:	21 50       	subi	r18, 0x01	; 1
    1150:	80 40       	sbci	r24, 0x00	; 0
    1152:	90 40       	sbci	r25, 0x00	; 0
    1154:	e1 f7       	brne	.-8      	; 0x114e <_ZN3LCD4initEv+0x18>
    1156:	00 c0       	rjmp	.+0      	; 0x1158 <_ZN3LCD4initEv+0x22>
    1158:	00 00       	nop
    115a:	8b b1       	in	r24, 0x0b	; 11
    115c:	8f 70       	andi	r24, 0x0F	; 15
    115e:	80 63       	ori	r24, 0x30	; 48
    1160:	8b b9       	out	0x0b, r24	; 11
    1162:	25 e0       	ldi	r18, 0x05	; 5
    1164:	2a 95       	dec	r18
    1166:	f1 f7       	brne	.-4      	; 0x1164 <_ZN3LCD4initEv+0x2e>
    1168:	00 00       	nop
    116a:	85 b1       	in	r24, 0x05	; 5
    116c:	82 60       	ori	r24, 0x02	; 2
    116e:	85 b9       	out	0x05, r24	; 5
    1170:	85 e0       	ldi	r24, 0x05	; 5
    1172:	8a 95       	dec	r24
    1174:	f1 f7       	brne	.-4      	; 0x1172 <_ZN3LCD4initEv+0x3c>
    1176:	00 00       	nop
    1178:	85 b1       	in	r24, 0x05	; 5
    117a:	8d 7f       	andi	r24, 0xFD	; 253
    117c:	85 b9       	out	0x05, r24	; 5
    117e:	90 ef       	ldi	r25, 0xF0	; 240
    1180:	9a 95       	dec	r25
    1182:	f1 f7       	brne	.-4      	; 0x1180 <_ZN3LCD4initEv+0x4a>
    1184:	8f e1       	ldi	r24, 0x1F	; 31
    1186:	9e e4       	ldi	r25, 0x4E	; 78
    1188:	01 97       	sbiw	r24, 0x01	; 1
    118a:	f1 f7       	brne	.-4      	; 0x1188 <_ZN3LCD4initEv+0x52>
    118c:	00 c0       	rjmp	.+0      	; 0x118e <_ZN3LCD4initEv+0x58>
    118e:	00 00       	nop
    1190:	95 e0       	ldi	r25, 0x05	; 5
    1192:	9a 95       	dec	r25
    1194:	f1 f7       	brne	.-4      	; 0x1192 <_ZN3LCD4initEv+0x5c>
    1196:	00 00       	nop
    1198:	85 b1       	in	r24, 0x05	; 5
    119a:	82 60       	ori	r24, 0x02	; 2
    119c:	85 b9       	out	0x05, r24	; 5
    119e:	25 e0       	ldi	r18, 0x05	; 5
    11a0:	2a 95       	dec	r18
    11a2:	f1 f7       	brne	.-4      	; 0x11a0 <_ZN3LCD4initEv+0x6a>
    11a4:	00 00       	nop
    11a6:	85 b1       	in	r24, 0x05	; 5
    11a8:	8d 7f       	andi	r24, 0xFD	; 253
    11aa:	85 b9       	out	0x05, r24	; 5
    11ac:	80 ef       	ldi	r24, 0xF0	; 240
    11ae:	8a 95       	dec	r24
    11b0:	f1 f7       	brne	.-4      	; 0x11ae <_ZN3LCD4initEv+0x78>
    11b2:	8f e1       	ldi	r24, 0x1F	; 31
    11b4:	93 e0       	ldi	r25, 0x03	; 3
    11b6:	01 97       	sbiw	r24, 0x01	; 1
    11b8:	f1 f7       	brne	.-4      	; 0x11b6 <_ZN3LCD4initEv+0x80>
    11ba:	00 c0       	rjmp	.+0      	; 0x11bc <_ZN3LCD4initEv+0x86>
    11bc:	00 00       	nop
    11be:	95 e0       	ldi	r25, 0x05	; 5
    11c0:	9a 95       	dec	r25
    11c2:	f1 f7       	brne	.-4      	; 0x11c0 <_ZN3LCD4initEv+0x8a>
    11c4:	00 00       	nop
    11c6:	85 b1       	in	r24, 0x05	; 5
    11c8:	82 60       	ori	r24, 0x02	; 2
    11ca:	85 b9       	out	0x05, r24	; 5
    11cc:	25 e0       	ldi	r18, 0x05	; 5
    11ce:	2a 95       	dec	r18
    11d0:	f1 f7       	brne	.-4      	; 0x11ce <_ZN3LCD4initEv+0x98>
    11d2:	00 00       	nop
    11d4:	85 b1       	in	r24, 0x05	; 5
    11d6:	8d 7f       	andi	r24, 0xFD	; 253
    11d8:	85 b9       	out	0x05, r24	; 5
    11da:	80 ef       	ldi	r24, 0xF0	; 240
    11dc:	8a 95       	dec	r24
    11de:	f1 f7       	brne	.-4      	; 0x11dc <_ZN3LCD4initEv+0xa6>
    11e0:	8b b1       	in	r24, 0x0b	; 11
    11e2:	8f 70       	andi	r24, 0x0F	; 15
    11e4:	80 62       	ori	r24, 0x20	; 32
    11e6:	8b b9       	out	0x0b, r24	; 11
    11e8:	95 e0       	ldi	r25, 0x05	; 5
    11ea:	9a 95       	dec	r25
    11ec:	f1 f7       	brne	.-4      	; 0x11ea <_ZN3LCD4initEv+0xb4>
    11ee:	00 00       	nop
    11f0:	85 b1       	in	r24, 0x05	; 5
    11f2:	82 60       	ori	r24, 0x02	; 2
    11f4:	85 b9       	out	0x05, r24	; 5
    11f6:	25 e0       	ldi	r18, 0x05	; 5
    11f8:	2a 95       	dec	r18
    11fa:	f1 f7       	brne	.-4      	; 0x11f8 <_ZN3LCD4initEv+0xc2>
    11fc:	00 00       	nop
    11fe:	85 b1       	in	r24, 0x05	; 5
    1200:	8d 7f       	andi	r24, 0xFD	; 253
    1202:	85 b9       	out	0x05, r24	; 5
    1204:	80 ef       	ldi	r24, 0xF0	; 240
    1206:	8a 95       	dec	r24
    1208:	f1 f7       	brne	.-4      	; 0x1206 <_ZN3LCD4initEv+0xd0>
    120a:	40 e0       	ldi	r20, 0x00	; 0
    120c:	68 e2       	ldi	r22, 0x28	; 40
    120e:	ce 01       	movw	r24, r28
    1210:	0e 94 57 08 	call	0x10ae	; 0x10ae <_ZN3LCD7cmd_LCDEhc>
    1214:	40 e0       	ldi	r20, 0x00	; 0
    1216:	68 e0       	ldi	r22, 0x08	; 8
    1218:	ce 01       	movw	r24, r28
    121a:	0e 94 57 08 	call	0x10ae	; 0x10ae <_ZN3LCD7cmd_LCDEhc>
    121e:	40 e0       	ldi	r20, 0x00	; 0
    1220:	61 e0       	ldi	r22, 0x01	; 1
    1222:	ce 01       	movw	r24, r28
    1224:	0e 94 57 08 	call	0x10ae	; 0x10ae <_ZN3LCD7cmd_LCDEhc>
    1228:	40 e0       	ldi	r20, 0x00	; 0
    122a:	6c e0       	ldi	r22, 0x0C	; 12
    122c:	ce 01       	movw	r24, r28
    122e:	0e 94 57 08 	call	0x10ae	; 0x10ae <_ZN3LCD7cmd_LCDEhc>
    1232:	40 e0       	ldi	r20, 0x00	; 0
    1234:	60 e8       	ldi	r22, 0x80	; 128
    1236:	ce 01       	movw	r24, r28
    1238:	0e 94 57 08 	call	0x10ae	; 0x10ae <_ZN3LCD7cmd_LCDEhc>
    123c:	df 91       	pop	r29
    123e:	cf 91       	pop	r28
    1240:	08 95       	ret

00001242 <_ZN3LCD5writeEPc>:
    1242:	0f 93       	push	r16
    1244:	1f 93       	push	r17
    1246:	cf 93       	push	r28
    1248:	df 93       	push	r29
    124a:	8c 01       	movw	r16, r24
    124c:	eb 01       	movw	r28, r22
    124e:	68 81       	ld	r22, Y
    1250:	66 23       	and	r22, r22
    1252:	31 f0       	breq	.+12     	; 0x1260 <_ZN3LCD5writeEPc+0x1e>
    1254:	41 e0       	ldi	r20, 0x01	; 1
    1256:	c8 01       	movw	r24, r16
    1258:	0e 94 57 08 	call	0x10ae	; 0x10ae <_ZN3LCD7cmd_LCDEhc>
    125c:	21 96       	adiw	r28, 0x01	; 1
    125e:	f7 cf       	rjmp	.-18     	; 0x124e <_ZN3LCD5writeEPc+0xc>
    1260:	df 91       	pop	r29
    1262:	cf 91       	pop	r28
    1264:	1f 91       	pop	r17
    1266:	0f 91       	pop	r16
    1268:	08 95       	ret

0000126a <_ZN3LCD16setCursor_inLineEh>:
    126a:	61 30       	cpi	r22, 0x01	; 1
    126c:	19 f0       	breq	.+6      	; 0x1274 <_ZN3LCD16setCursor_inLineEh+0xa>
    126e:	62 30       	cpi	r22, 0x02	; 2
    1270:	31 f0       	breq	.+12     	; 0x127e <_ZN3LCD16setCursor_inLineEh+0x14>
    1272:	08 95       	ret
    1274:	40 e0       	ldi	r20, 0x00	; 0
    1276:	60 e8       	ldi	r22, 0x80	; 128
    1278:	0e 94 57 08 	call	0x10ae	; 0x10ae <_ZN3LCD7cmd_LCDEhc>
    127c:	08 95       	ret
    127e:	40 e0       	ldi	r20, 0x00	; 0
    1280:	60 ec       	ldi	r22, 0xC0	; 192
    1282:	0e 94 57 08 	call	0x10ae	; 0x10ae <_ZN3LCD7cmd_LCDEhc>
    1286:	08 95       	ret

00001288 <_ZN3LCD5clearEv>:
    1288:	cf 93       	push	r28
    128a:	df 93       	push	r29
    128c:	ec 01       	movw	r28, r24
    128e:	40 e0       	ldi	r20, 0x00	; 0
    1290:	61 e0       	ldi	r22, 0x01	; 1
    1292:	0e 94 57 08 	call	0x10ae	; 0x10ae <_ZN3LCD7cmd_LCDEhc>
    1296:	61 e0       	ldi	r22, 0x01	; 1
    1298:	ce 01       	movw	r24, r28
    129a:	0e 94 35 09 	call	0x126a	; 0x126a <_ZN3LCD16setCursor_inLineEh>
    129e:	df 91       	pop	r29
    12a0:	cf 91       	pop	r28
    12a2:	08 95       	ret

000012a4 <_Z41__static_initialization_and_destruction_0ii>:
		else{
			clr_bit(PORTC, PORTC5); //Turn off the on-off led
			reset2(); //Resets the machine
		}	
	}
}
    12a4:	0f 93       	push	r16
    12a6:	1f 93       	push	r17
    12a8:	cf 93       	push	r28
    12aa:	df 93       	push	r29
    12ac:	ec 01       	movw	r28, r24
    12ae:	8b 01       	movw	r16, r22
    12b0:	01 97       	sbiw	r24, 0x01	; 1
    12b2:	99 f4       	brne	.+38     	; 0x12da <_Z41__static_initialization_and_destruction_0ii+0x36>
    12b4:	6f 3f       	cpi	r22, 0xFF	; 255
    12b6:	7f 4f       	sbci	r23, 0xFF	; 255
    12b8:	81 f4       	brne	.+32     	; 0x12da <_Z41__static_initialization_and_destruction_0ii+0x36>
#include "display7seg.h"
#include "serial.h"
#include <util/delay.h>

//Creates objetcs
DrinkMaker drinkMaker;
    12ba:	83 ed       	ldi	r24, 0xD3	; 211
    12bc:	93 e0       	ldi	r25, 0x03	; 3
    12be:	0e 94 26 01 	call	0x24c	; 0x24c <_ZN10DrinkMakerC1Ev>
Serial serial;
    12c2:	8e ec       	ldi	r24, 0xCE	; 206
    12c4:	93 e0       	ldi	r25, 0x03	; 3
    12c6:	0e 94 19 0e 	call	0x1c32	; 0x1c32 <_ZN6SerialC1Ev>
Display7seg _7seg;
    12ca:	8a ec       	ldi	r24, 0xCA	; 202
    12cc:	93 e0       	ldi	r25, 0x03	; 3
    12ce:	0e 94 84 00 	call	0x108	; 0x108 <_ZN11Display7segC1Ev>
LCD lcd;
    12d2:	89 ec       	ldi	r24, 0xC9	; 201
    12d4:	93 e0       	ldi	r25, 0x03	; 3
    12d6:	0e 94 43 08 	call	0x1086	; 0x1086 <_ZN3LCDC1Ev>
    12da:	cd 2b       	or	r28, r29
    12dc:	99 f4       	brne	.+38     	; 0x1304 <_Z41__static_initialization_and_destruction_0ii+0x60>
    12de:	0f 3f       	cpi	r16, 0xFF	; 255
    12e0:	1f 4f       	sbci	r17, 0xFF	; 255
    12e2:	81 f4       	brne	.+32     	; 0x1304 <_Z41__static_initialization_and_destruction_0ii+0x60>
    12e4:	89 ec       	ldi	r24, 0xC9	; 201
    12e6:	93 e0       	ldi	r25, 0x03	; 3
    12e8:	0e 94 56 08 	call	0x10ac	; 0x10ac <_ZN3LCDD1Ev>
#include <util/delay.h>

//Creates objetcs
DrinkMaker drinkMaker;
Serial serial;
Display7seg _7seg;
    12ec:	8a ec       	ldi	r24, 0xCA	; 202
    12ee:	93 e0       	ldi	r25, 0x03	; 3
    12f0:	0e 94 85 00 	call	0x10a	; 0x10a <_ZN11Display7segD1Ev>
#include "serial.h"
#include <util/delay.h>

//Creates objetcs
DrinkMaker drinkMaker;
Serial serial;
    12f4:	8e ec       	ldi	r24, 0xCE	; 206
    12f6:	93 e0       	ldi	r25, 0x03	; 3
    12f8:	0e 94 56 0d 	call	0x1aac	; 0x1aac <_ZN6SerialD1Ev>
#include "display7seg.h"
#include "serial.h"
#include <util/delay.h>

//Creates objetcs
DrinkMaker drinkMaker;
    12fc:	83 ed       	ldi	r24, 0xD3	; 211
    12fe:	93 e0       	ldi	r25, 0x03	; 3
    1300:	0e 94 7e 01 	call	0x2fc	; 0x2fc <_ZN10DrinkMakerD1Ev>
		else{
			clr_bit(PORTC, PORTC5); //Turn off the on-off led
			reset2(); //Resets the machine
		}	
	}
}
    1304:	df 91       	pop	r29
    1306:	cf 91       	pop	r28
    1308:	1f 91       	pop	r17
    130a:	0f 91       	pop	r16
    130c:	08 95       	ret

0000130e <__vector_1>:
volatile bool stateHandler = false;
volatile bool stateHandler2 = false; //This handler is needed because some bug occurs at the state machine and interruptions...

//External Interrupt 0 function ('select' button)
ISR(INT0_vect)
{
    130e:	1f 92       	push	r1
    1310:	0f 92       	push	r0
    1312:	0f b6       	in	r0, 0x3f	; 63
    1314:	0f 92       	push	r0
    1316:	11 24       	eor	r1, r1
    1318:	2f 93       	push	r18
    131a:	3f 93       	push	r19
    131c:	4f 93       	push	r20
    131e:	5f 93       	push	r21
    1320:	6f 93       	push	r22
    1322:	7f 93       	push	r23
    1324:	8f 93       	push	r24
    1326:	9f 93       	push	r25
    1328:	af 93       	push	r26
    132a:	bf 93       	push	r27
    132c:	ef 93       	push	r30
    132e:	ff 93       	push	r31
	if(_state == SELECTING_DRINK){
    1330:	80 91 c6 03 	lds	r24, 0x03C6	; 0x8003c6 <_state>
    1334:	81 30       	cpi	r24, 0x01	; 1
    1336:	c9 f4       	brne	.+50     	; 0x136a <__vector_1+0x5c>
		if(menu_index < 7)
    1338:	80 91 c8 03 	lds	r24, 0x03C8	; 0x8003c8 <menu_index>
    133c:	87 30       	cpi	r24, 0x07	; 7
    133e:	30 f4       	brcc	.+12     	; 0x134c <__vector_1+0x3e>
			menu_index++;
    1340:	80 91 c8 03 	lds	r24, 0x03C8	; 0x8003c8 <menu_index>
    1344:	8f 5f       	subi	r24, 0xFF	; 255
    1346:	80 93 c8 03 	sts	0x03C8, r24	; 0x8003c8 <menu_index>
    134a:	03 c0       	rjmp	.+6      	; 0x1352 <__vector_1+0x44>
		else
			menu_index = 1;
    134c:	81 e0       	ldi	r24, 0x01	; 1
    134e:	80 93 c8 03 	sts	0x03C8, r24	; 0x8003c8 <menu_index>
		
		//Updates 7seg and LCD displays	
		_7seg.updateDisplay(&menu_index);
    1352:	68 ec       	ldi	r22, 0xC8	; 200
    1354:	73 e0       	ldi	r23, 0x03	; 3
    1356:	8a ec       	ldi	r24, 0xCA	; 202
    1358:	93 e0       	ldi	r25, 0x03	; 3
    135a:	0e 94 b1 00 	call	0x162	; 0x162 <_ZN11Display7seg13updateDisplayEPVh>
		drinkMaker.updateLCD(&menu_index);
    135e:	68 ec       	ldi	r22, 0xC8	; 200
    1360:	73 e0       	ldi	r23, 0x03	; 3
    1362:	83 ed       	ldi	r24, 0xD3	; 211
    1364:	93 e0       	ldi	r25, 0x03	; 3
    1366:	0e 94 a5 07 	call	0xf4a	; 0xf4a <_ZN10DrinkMaker9updateLCDEPVh>
	}
}
    136a:	ff 91       	pop	r31
    136c:	ef 91       	pop	r30
    136e:	bf 91       	pop	r27
    1370:	af 91       	pop	r26
    1372:	9f 91       	pop	r25
    1374:	8f 91       	pop	r24
    1376:	7f 91       	pop	r23
    1378:	6f 91       	pop	r22
    137a:	5f 91       	pop	r21
    137c:	4f 91       	pop	r20
    137e:	3f 91       	pop	r19
    1380:	2f 91       	pop	r18
    1382:	0f 90       	pop	r0
    1384:	0f be       	out	0x3f, r0	; 63
    1386:	0f 90       	pop	r0
    1388:	1f 90       	pop	r1
    138a:	18 95       	reti

0000138c <__vector_2>:

//External Interrupt 1 function ('enter' button)
ISR(INT1_vect)
{
    138c:	1f 92       	push	r1
    138e:	0f 92       	push	r0
    1390:	0f b6       	in	r0, 0x3f	; 63
    1392:	0f 92       	push	r0
    1394:	11 24       	eor	r1, r1
    1396:	2f 93       	push	r18
    1398:	3f 93       	push	r19
    139a:	4f 93       	push	r20
    139c:	5f 93       	push	r21
    139e:	6f 93       	push	r22
    13a0:	7f 93       	push	r23
    13a2:	8f 93       	push	r24
    13a4:	9f 93       	push	r25
    13a6:	af 93       	push	r26
    13a8:	bf 93       	push	r27
    13aa:	ef 93       	push	r30
    13ac:	ff 93       	push	r31
	//If enter was pressed, try to make drink
	if(tst_bit(PIND, PORTD2) == 0){
    13ae:	4a 99       	sbic	0x09, 2	; 9
    13b0:	1a c0       	rjmp	.+52     	; 0x13e6 <__vector_2+0x5a>
		drinkMaker.makeDrink(&menu_index); //Make drink if it's available
    13b2:	68 ec       	ldi	r22, 0xC8	; 200
    13b4:	73 e0       	ldi	r23, 0x03	; 3
    13b6:	83 ed       	ldi	r24, 0xD3	; 211
    13b8:	93 e0       	ldi	r25, 0x03	; 3
    13ba:	0e 94 43 03 	call	0x686	; 0x686 <_ZN10DrinkMaker9makeDrinkEPVh>
		if(drinkMaker.drink_available == true){
    13be:	80 91 d4 03 	lds	r24, 0x03D4	; 0x8003d4 <drinkMaker+0x1>
    13c2:	88 23       	and	r24, r24
    13c4:	51 f0       	breq	.+20     	; 0x13da <__vector_2+0x4e>
			lcd.clear();
    13c6:	89 ec       	ldi	r24, 0xC9	; 201
    13c8:	93 e0       	ldi	r25, 0x03	; 3
    13ca:	0e 94 44 09 	call	0x1288	; 0x1288 <_ZN3LCD5clearEv>
			_state = MILLING_COFFEE;
    13ce:	82 e0       	ldi	r24, 0x02	; 2
    13d0:	80 93 c6 03 	sts	0x03C6, r24	; 0x8003c6 <_state>
			stateHandler = false;
    13d4:	10 92 bd 03 	sts	0x03BD, r1	; 0x8003bd <stateHandler>
    13d8:	0b c0       	rjmp	.+22     	; 0x13f0 <__vector_2+0x64>
		}
		else{
			_state = SELECTING_DRINK;
    13da:	81 e0       	ldi	r24, 0x01	; 1
    13dc:	80 93 c6 03 	sts	0x03C6, r24	; 0x8003c6 <_state>
			show_ok = false;
    13e0:	10 92 be 03 	sts	0x03BE, r1	; 0x8003be <show_ok>
    13e4:	05 c0       	rjmp	.+10     	; 0x13f0 <__vector_2+0x64>
		}
		
	}
	//If enter and select buttons were pressed, refuel the machine
	else{
		_state = REFUELLING_MACHINE;
    13e6:	85 e0       	ldi	r24, 0x05	; 5
    13e8:	80 93 c6 03 	sts	0x03C6, r24	; 0x8003c6 <_state>
		stateHandler = false;
    13ec:	10 92 bd 03 	sts	0x03BD, r1	; 0x8003bd <stateHandler>
	}
	
		
}
    13f0:	ff 91       	pop	r31
    13f2:	ef 91       	pop	r30
    13f4:	bf 91       	pop	r27
    13f6:	af 91       	pop	r26
    13f8:	9f 91       	pop	r25
    13fa:	8f 91       	pop	r24
    13fc:	7f 91       	pop	r23
    13fe:	6f 91       	pop	r22
    1400:	5f 91       	pop	r21
    1402:	4f 91       	pop	r20
    1404:	3f 91       	pop	r19
    1406:	2f 91       	pop	r18
    1408:	0f 90       	pop	r0
    140a:	0f be       	out	0x3f, r0	; 63
    140c:	0f 90       	pop	r0
    140e:	1f 90       	pop	r1
    1410:	18 95       	reti

00001412 <__vector_18>:

//USART Received Data Interrupt
ISR(USART_RX_vect)
{
    1412:	1f 92       	push	r1
    1414:	0f 92       	push	r0
    1416:	0f b6       	in	r0, 0x3f	; 63
    1418:	0f 92       	push	r0
    141a:	11 24       	eor	r1, r1
    141c:	2f 93       	push	r18
    141e:	3f 93       	push	r19
    1420:	4f 93       	push	r20
    1422:	5f 93       	push	r21
    1424:	6f 93       	push	r22
    1426:	7f 93       	push	r23
    1428:	8f 93       	push	r24
    142a:	9f 93       	push	r25
    142c:	af 93       	push	r26
    142e:	bf 93       	push	r27
    1430:	ef 93       	push	r30
    1432:	ff 93       	push	r31
	char receivedByte = UDR0;
    1434:	80 91 c6 00 	lds	r24, 0x00C6	; 0x8000c6 <__TEXT_REGION_LENGTH__+0x7f80c6>
	
	if (receivedByte == '0')
    1438:	80 33       	cpi	r24, 0x30	; 48
    143a:	11 f4       	brne	.+4      	; 0x1440 <__vector_18+0x2e>
		_command = 0;
    143c:	10 92 c7 03 	sts	0x03C7, r1	; 0x8003c7 <_command>
	if (receivedByte == '1')
    1440:	81 33       	cpi	r24, 0x31	; 49
    1442:	19 f4       	brne	.+6      	; 0x144a <__vector_18+0x38>
		_command = 1;
    1444:	91 e0       	ldi	r25, 0x01	; 1
    1446:	90 93 c7 03 	sts	0x03C7, r25	; 0x8003c7 <_command>
	if (receivedByte == '2')
    144a:	82 33       	cpi	r24, 0x32	; 50
    144c:	19 f4       	brne	.+6      	; 0x1454 <__vector_18+0x42>
		_command = 2;
    144e:	92 e0       	ldi	r25, 0x02	; 2
    1450:	90 93 c7 03 	sts	0x03C7, r25	; 0x8003c7 <_command>
	if (receivedByte == '3')
    1454:	83 33       	cpi	r24, 0x33	; 51
    1456:	19 f4       	brne	.+6      	; 0x145e <__vector_18+0x4c>
	_command = 3;
    1458:	83 e0       	ldi	r24, 0x03	; 3
    145a:	80 93 c7 03 	sts	0x03C7, r24	; 0x8003c7 <_command>

	switch(_command){
    145e:	80 91 c7 03 	lds	r24, 0x03C7	; 0x8003c7 <_command>
    1462:	81 30       	cpi	r24, 0x01	; 1
    1464:	59 f0       	breq	.+22     	; 0x147c <__vector_18+0x6a>
    1466:	28 f0       	brcs	.+10     	; 0x1472 <__vector_18+0x60>
    1468:	82 30       	cpi	r24, 0x02	; 2
    146a:	71 f0       	breq	.+28     	; 0x1488 <__vector_18+0x76>
    146c:	83 30       	cpi	r24, 0x03	; 3
    146e:	a9 f0       	breq	.+42     	; 0x149a <__vector_18+0x88>
    1470:	18 c0       	rjmp	.+48     	; 0x14a2 <__vector_18+0x90>
		case SHOW_PROFIT: //Show profit acquired until the moment
			drinkMaker.show_profit(); 
    1472:	83 ed       	ldi	r24, 0xD3	; 211
    1474:	93 e0       	ldi	r25, 0x03	; 3
    1476:	0e 94 a7 06 	call	0xd4e	; 0xd4e <_ZN10DrinkMaker11show_profitEv>
			break;
    147a:	13 c0       	rjmp	.+38     	; 0x14a2 <__vector_18+0x90>
		
		case DEBUG_MODE: //Enables debug mode at USART
			debug_mode = true;
    147c:	81 e0       	ldi	r24, 0x01	; 1
    147e:	80 93 bf 03 	sts	0x03BF, r24	; 0x8003bf <debug_mode>
			drinkMaker.debug_mode = true;
    1482:	80 93 d3 03 	sts	0x03D3, r24	; 0x8003d3 <drinkMaker>
			break;
    1486:	0d c0       	rjmp	.+26     	; 0x14a2 <__vector_18+0x90>
		
		case EXIT: //Disable debug mode at USART
			debug_mode = false;
    1488:	10 92 bf 03 	sts	0x03BF, r1	; 0x8003bf <debug_mode>
			drinkMaker.debug_mode = false;
    148c:	10 92 d3 03 	sts	0x03D3, r1	; 0x8003d3 <drinkMaker>
			serial.show_menu();
    1490:	8e ec       	ldi	r24, 0xCE	; 206
    1492:	93 e0       	ldi	r25, 0x03	; 3
    1494:	0e 94 56 0e 	call	0x1cac	; 0x1cac <_ZN6Serial9show_menuEv>
			break;
    1498:	04 c0       	rjmp	.+8      	; 0x14a2 <__vector_18+0x90>
			
		case SHOW_REMAINING_INGREDIENTS: //Show remaining ingredients
			drinkMaker.show_remaining_ingredients();
    149a:	83 ed       	ldi	r24, 0xD3	; 211
    149c:	93 e0       	ldi	r25, 0x03	; 3
    149e:	0e 94 b6 05 	call	0xb6c	; 0xb6c <_ZN10DrinkMaker26show_remaining_ingredientsEv>
	}
}
    14a2:	ff 91       	pop	r31
    14a4:	ef 91       	pop	r30
    14a6:	bf 91       	pop	r27
    14a8:	af 91       	pop	r26
    14aa:	9f 91       	pop	r25
    14ac:	8f 91       	pop	r24
    14ae:	7f 91       	pop	r23
    14b0:	6f 91       	pop	r22
    14b2:	5f 91       	pop	r21
    14b4:	4f 91       	pop	r20
    14b6:	3f 91       	pop	r19
    14b8:	2f 91       	pop	r18
    14ba:	0f 90       	pop	r0
    14bc:	0f be       	out	0x3f, r0	; 63
    14be:	0f 90       	pop	r0
    14c0:	1f 90       	pop	r1
    14c2:	18 95       	reti

000014c4 <__vector_13>:

//Timer 1 Overflow Interrupt, used to stop milling the coffee
ISR(TIMER1_OVF_vect)
{
    14c4:	1f 92       	push	r1
    14c6:	0f 92       	push	r0
    14c8:	0f b6       	in	r0, 0x3f	; 63
    14ca:	0f 92       	push	r0
    14cc:	11 24       	eor	r1, r1
    14ce:	2f 93       	push	r18
    14d0:	3f 93       	push	r19
    14d2:	4f 93       	push	r20
    14d4:	5f 93       	push	r21
    14d6:	6f 93       	push	r22
    14d8:	7f 93       	push	r23
    14da:	8f 93       	push	r24
    14dc:	9f 93       	push	r25
    14de:	af 93       	push	r26
    14e0:	bf 93       	push	r27
    14e2:	ef 93       	push	r30
    14e4:	ff 93       	push	r31
	timer1_cicle_counter++;
    14e6:	80 91 c0 03 	lds	r24, 0x03C0	; 0x8003c0 <timer1_cicle_counter>
    14ea:	90 91 c1 03 	lds	r25, 0x03C1	; 0x8003c1 <timer1_cicle_counter+0x1>
    14ee:	01 96       	adiw	r24, 0x01	; 1
    14f0:	90 93 c1 03 	sts	0x03C1, r25	; 0x8003c1 <timer1_cicle_counter+0x1>
    14f4:	80 93 c0 03 	sts	0x03C0, r24	; 0x8003c0 <timer1_cicle_counter>
	
	//91 means approximately 3 seconds
	if(timer1_cicle_counter == 91){
    14f8:	80 91 c0 03 	lds	r24, 0x03C0	; 0x8003c0 <timer1_cicle_counter>
    14fc:	90 91 c1 03 	lds	r25, 0x03C1	; 0x8003c1 <timer1_cicle_counter+0x1>
    1500:	8b 35       	cpi	r24, 0x5B	; 91
    1502:	91 05       	cpc	r25, r1
    1504:	79 f4       	brne	.+30     	; 0x1524 <__vector_13+0x60>
		show_ok = false;
    1506:	10 92 be 03 	sts	0x03BE, r1	; 0x8003be <show_ok>
		stateHandler = false;
    150a:	10 92 bd 03 	sts	0x03BD, r1	; 0x8003bd <stateHandler>
		//drinkMaker.stopMilling();
		_state = PREPARING_DRINK;
    150e:	83 e0       	ldi	r24, 0x03	; 3
    1510:	80 93 c6 03 	sts	0x03C6, r24	; 0x8003c6 <_state>
		lcd.clear();
    1514:	89 ec       	ldi	r24, 0xC9	; 201
    1516:	93 e0       	ldi	r25, 0x03	; 3
    1518:	0e 94 44 09 	call	0x1288	; 0x1288 <_ZN3LCD5clearEv>
		timer1_cicle_counter = 0;
    151c:	10 92 c1 03 	sts	0x03C1, r1	; 0x8003c1 <timer1_cicle_counter+0x1>
    1520:	10 92 c0 03 	sts	0x03C0, r1	; 0x8003c0 <timer1_cicle_counter>
	}
	
}
    1524:	ff 91       	pop	r31
    1526:	ef 91       	pop	r30
    1528:	bf 91       	pop	r27
    152a:	af 91       	pop	r26
    152c:	9f 91       	pop	r25
    152e:	8f 91       	pop	r24
    1530:	7f 91       	pop	r23
    1532:	6f 91       	pop	r22
    1534:	5f 91       	pop	r21
    1536:	4f 91       	pop	r20
    1538:	3f 91       	pop	r19
    153a:	2f 91       	pop	r18
    153c:	0f 90       	pop	r0
    153e:	0f be       	out	0x3f, r0	; 63
    1540:	0f 90       	pop	r0
    1542:	1f 90       	pop	r1
    1544:	18 95       	reti

00001546 <__vector_16>:

//Timer 0 Overflow Interrupt, used to close the valves
ISR(TIMER0_OVF_vect)
{
    1546:	1f 92       	push	r1
    1548:	0f 92       	push	r0
    154a:	0f b6       	in	r0, 0x3f	; 63
    154c:	0f 92       	push	r0
    154e:	11 24       	eor	r1, r1
    1550:	2f 93       	push	r18
    1552:	3f 93       	push	r19
    1554:	4f 93       	push	r20
    1556:	5f 93       	push	r21
    1558:	6f 93       	push	r22
    155a:	7f 93       	push	r23
    155c:	8f 93       	push	r24
    155e:	9f 93       	push	r25
    1560:	af 93       	push	r26
    1562:	bf 93       	push	r27
    1564:	ef 93       	push	r30
    1566:	ff 93       	push	r31
	timer0_cicle_counter++;
    1568:	80 91 c4 03 	lds	r24, 0x03C4	; 0x8003c4 <timer0_cicle_counter>
    156c:	90 91 c5 03 	lds	r25, 0x03C5	; 0x8003c5 <timer0_cicle_counter+0x1>
    1570:	01 96       	adiw	r24, 0x01	; 1
    1572:	90 93 c5 03 	sts	0x03C5, r25	; 0x8003c5 <timer0_cicle_counter+0x1>
    1576:	80 93 c4 03 	sts	0x03C4, r24	; 0x8003c4 <timer0_cicle_counter>
	
	if(timer0_cicle_counter == timer0_cicle_setpoint){ //The set-point depends of what drink was selected 
    157a:	20 91 c4 03 	lds	r18, 0x03C4	; 0x8003c4 <timer0_cicle_counter>
    157e:	30 91 c5 03 	lds	r19, 0x03C5	; 0x8003c5 <timer0_cicle_counter+0x1>
    1582:	80 91 c2 03 	lds	r24, 0x03C2	; 0x8003c2 <timer0_cicle_setpoint>
    1586:	90 91 c3 03 	lds	r25, 0x03C3	; 0x8003c3 <timer0_cicle_setpoint+0x1>
    158a:	28 17       	cp	r18, r24
    158c:	39 07       	cpc	r19, r25
    158e:	69 f4       	brne	.+26     	; 0x15aa <__vector_16+0x64>
		lcd.clear();
    1590:	89 ec       	ldi	r24, 0xC9	; 201
    1592:	93 e0       	ldi	r25, 0x03	; 3
    1594:	0e 94 44 09 	call	0x1288	; 0x1288 <_ZN3LCD5clearEv>
		_state = REMOVING_GLASS;
    1598:	84 e0       	ldi	r24, 0x04	; 4
    159a:	80 93 c6 03 	sts	0x03C6, r24	; 0x8003c6 <_state>
		show_ok = false;
    159e:	10 92 be 03 	sts	0x03BE, r1	; 0x8003be <show_ok>
		timer0_cicle_counter = 0;
    15a2:	10 92 c5 03 	sts	0x03C5, r1	; 0x8003c5 <timer0_cicle_counter+0x1>
    15a6:	10 92 c4 03 	sts	0x03C4, r1	; 0x8003c4 <timer0_cicle_counter>
		
	}
}
    15aa:	ff 91       	pop	r31
    15ac:	ef 91       	pop	r30
    15ae:	bf 91       	pop	r27
    15b0:	af 91       	pop	r26
    15b2:	9f 91       	pop	r25
    15b4:	8f 91       	pop	r24
    15b6:	7f 91       	pop	r23
    15b8:	6f 91       	pop	r22
    15ba:	5f 91       	pop	r21
    15bc:	4f 91       	pop	r20
    15be:	3f 91       	pop	r19
    15c0:	2f 91       	pop	r18
    15c2:	0f 90       	pop	r0
    15c4:	0f be       	out	0x3f, r0	; 63
    15c6:	0f 90       	pop	r0
    15c8:	1f 90       	pop	r1
    15ca:	18 95       	reti

000015cc <_Z16setTimerSetPointPVh>:

//Function to select the set-point to determinate how long the valves will be open
void setTimerSetPoint(volatile unsigned char *menu_index)
{
	switch(*menu_index){
    15cc:	dc 01       	movw	r26, r24
    15ce:	ec 91       	ld	r30, X
    15d0:	8e 2f       	mov	r24, r30
    15d2:	90 e0       	ldi	r25, 0x00	; 0
    15d4:	fc 01       	movw	r30, r24
    15d6:	31 97       	sbiw	r30, 0x01	; 1
    15d8:	e7 30       	cpi	r30, 0x07	; 7
    15da:	f1 05       	cpc	r31, r1
    15dc:	a0 f5       	brcc	.+104    	; 0x1646 <_Z16setTimerSetPointPVh+0x7a>
    15de:	ef 5a       	subi	r30, 0xAF	; 175
    15e0:	ff 4f       	sbci	r31, 0xFF	; 255
    15e2:	0c 94 e5 10 	jmp	0x21ca	; 0x21ca <__tablejump2__>
		case 1: timer0_cicle_setpoint = 366;  break; //6 seconds
    15e6:	8e e6       	ldi	r24, 0x6E	; 110
    15e8:	91 e0       	ldi	r25, 0x01	; 1
    15ea:	90 93 c3 03 	sts	0x03C3, r25	; 0x8003c3 <timer0_cicle_setpoint+0x1>
    15ee:	80 93 c2 03 	sts	0x03C2, r24	; 0x8003c2 <timer0_cicle_setpoint>
    15f2:	08 95       	ret
		case 2: timer0_cicle_setpoint = 183; break; //3 seconds
    15f4:	87 eb       	ldi	r24, 0xB7	; 183
    15f6:	90 e0       	ldi	r25, 0x00	; 0
    15f8:	90 93 c3 03 	sts	0x03C3, r25	; 0x8003c3 <timer0_cicle_setpoint+0x1>
    15fc:	80 93 c2 03 	sts	0x03C2, r24	; 0x8003c2 <timer0_cicle_setpoint>
    1600:	08 95       	ret
		case 3: timer0_cicle_setpoint = 122; break; //2 seconds
    1602:	8a e7       	ldi	r24, 0x7A	; 122
    1604:	90 e0       	ldi	r25, 0x00	; 0
    1606:	90 93 c3 03 	sts	0x03C3, r25	; 0x8003c3 <timer0_cicle_setpoint+0x1>
    160a:	80 93 c2 03 	sts	0x03C2, r24	; 0x8003c2 <timer0_cicle_setpoint>
    160e:	08 95       	ret
		case 4: timer0_cicle_setpoint = 366; break; //6 seconds
    1610:	8e e6       	ldi	r24, 0x6E	; 110
    1612:	91 e0       	ldi	r25, 0x01	; 1
    1614:	90 93 c3 03 	sts	0x03C3, r25	; 0x8003c3 <timer0_cicle_setpoint+0x1>
    1618:	80 93 c2 03 	sts	0x03C2, r24	; 0x8003c2 <timer0_cicle_setpoint>
    161c:	08 95       	ret
		case 5: timer0_cicle_setpoint = 183; break; //3 seconds
    161e:	87 eb       	ldi	r24, 0xB7	; 183
    1620:	90 e0       	ldi	r25, 0x00	; 0
    1622:	90 93 c3 03 	sts	0x03C3, r25	; 0x8003c3 <timer0_cicle_setpoint+0x1>
    1626:	80 93 c2 03 	sts	0x03C2, r24	; 0x8003c2 <timer0_cicle_setpoint>
    162a:	08 95       	ret
		case 6: timer0_cicle_setpoint = 366;  break; //6 seconds
    162c:	8e e6       	ldi	r24, 0x6E	; 110
    162e:	91 e0       	ldi	r25, 0x01	; 1
    1630:	90 93 c3 03 	sts	0x03C3, r25	; 0x8003c3 <timer0_cicle_setpoint+0x1>
    1634:	80 93 c2 03 	sts	0x03C2, r24	; 0x8003c2 <timer0_cicle_setpoint>
    1638:	08 95       	ret
		case 7: timer0_cicle_setpoint = 183; break; //3 seconds
    163a:	87 eb       	ldi	r24, 0xB7	; 183
    163c:	90 e0       	ldi	r25, 0x00	; 0
    163e:	90 93 c3 03 	sts	0x03C3, r25	; 0x8003c3 <timer0_cicle_setpoint+0x1>
    1642:	80 93 c2 03 	sts	0x03C2, r24	; 0x8003c2 <timer0_cicle_setpoint>
    1646:	08 95       	ret

00001648 <_Z5resetv>:

//Reset Function to abort the process by removing the glass
void reset()
{
	
	TCCR2B = 0; //Motor disabled
    1648:	10 92 b1 00 	sts	0x00B1, r1	; 0x8000b1 <__TEXT_REGION_LENGTH__+0x7f80b1>
	TCCR1B = 0; //TC1 disabled
    164c:	10 92 81 00 	sts	0x0081, r1	; 0x800081 <__TEXT_REGION_LENGTH__+0x7f8081>
	TCCR0B = 0; //TC0 disabled
    1650:	15 bc       	out	0x25, r1	; 37
	
	drinkMaker.closeValves();
    1652:	83 ed       	ldi	r24, 0xD3	; 211
    1654:	93 e0       	ldi	r25, 0x03	; 3
    1656:	0e 94 84 07 	call	0xf08	; 0xf08 <_ZN10DrinkMaker11closeValvesEv>
	
	//Set first state
	_state = WAITING_GLASS;
    165a:	10 92 c6 03 	sts	0x03C6, r1	; 0x8003c6 <_state>
	
	//Reset flags and handles
	show_ok = false;
    165e:	10 92 be 03 	sts	0x03BE, r1	; 0x8003be <show_ok>
	stateHandler = false;
    1662:	10 92 bd 03 	sts	0x03BD, r1	; 0x8003bd <stateHandler>
	stateHandler2 = false;	
    1666:	10 92 bc 03 	sts	0x03BC, r1	; 0x8003bc <__data_end>
	
	//Reset counters
	timer0_cicle_counter = 0;
    166a:	10 92 c5 03 	sts	0x03C5, r1	; 0x8003c5 <timer0_cicle_counter+0x1>
    166e:	10 92 c4 03 	sts	0x03C4, r1	; 0x8003c4 <timer0_cicle_counter>
	timer0_cicle_setpoint = 0;
    1672:	10 92 c3 03 	sts	0x03C3, r1	; 0x8003c3 <timer0_cicle_setpoint+0x1>
    1676:	10 92 c2 03 	sts	0x03C2, r1	; 0x8003c2 <timer0_cicle_setpoint>
	timer1_cicle_counter = 0;
    167a:	10 92 c1 03 	sts	0x03C1, r1	; 0x8003c1 <timer1_cicle_counter+0x1>
    167e:	10 92 c0 03 	sts	0x03C0, r1	; 0x8003c0 <timer1_cicle_counter>
	
	lcd.clear();
    1682:	89 ec       	ldi	r24, 0xC9	; 201
    1684:	93 e0       	ldi	r25, 0x03	; 3
    1686:	0e 94 44 09 	call	0x1288	; 0x1288 <_ZN3LCD5clearEv>
	lcd.write("Processo");
    168a:	65 ec       	ldi	r22, 0xC5	; 197
    168c:	72 e0       	ldi	r23, 0x02	; 2
    168e:	89 ec       	ldi	r24, 0xC9	; 201
    1690:	93 e0       	ldi	r25, 0x03	; 3
    1692:	0e 94 21 09 	call	0x1242	; 0x1242 <_ZN3LCD5writeEPc>
	lcd.setCursor_inLine(2);
    1696:	62 e0       	ldi	r22, 0x02	; 2
    1698:	89 ec       	ldi	r24, 0xC9	; 201
    169a:	93 e0       	ldi	r25, 0x03	; 3
    169c:	0e 94 35 09 	call	0x126a	; 0x126a <_ZN3LCD16setCursor_inLineEh>
	lcd.write("Abortado");
    16a0:	6e ec       	ldi	r22, 0xCE	; 206
    16a2:	72 e0       	ldi	r23, 0x02	; 2
    16a4:	89 ec       	ldi	r24, 0xC9	; 201
    16a6:	93 e0       	ldi	r25, 0x03	; 3
    16a8:	0e 94 21 09 	call	0x1242	; 0x1242 <_ZN3LCD5writeEPc>
	#else
		//round up by default
		__ticks_dc = (uint32_t)(ceil(fabs(__tmp)));
	#endif

	__builtin_avr_delay_cycles(__ticks_dc);
    16ac:	2f ef       	ldi	r18, 0xFF	; 255
    16ae:	83 ed       	ldi	r24, 0xD3	; 211
    16b0:	90 e3       	ldi	r25, 0x30	; 48
    16b2:	21 50       	subi	r18, 0x01	; 1
    16b4:	80 40       	sbci	r24, 0x00	; 0
    16b6:	90 40       	sbci	r25, 0x00	; 0
    16b8:	e1 f7       	brne	.-8      	; 0x16b2 <_Z5resetv+0x6a>
    16ba:	00 c0       	rjmp	.+0      	; 0x16bc <_Z5resetv+0x74>
    16bc:	00 00       	nop
	_delay_ms(1000);
	lcd.clear();
    16be:	89 ec       	ldi	r24, 0xC9	; 201
    16c0:	93 e0       	ldi	r25, 0x03	; 3
    16c2:	0e 94 44 09 	call	0x1288	; 0x1288 <_ZN3LCD5clearEv>
    16c6:	08 95       	ret

000016c8 <_Z6reset2v>:
}

//Reset Function to abort the process by shutting down the machine
void reset2()
{
	TCCR2B = 0; //Motor disabled
    16c8:	10 92 b1 00 	sts	0x00B1, r1	; 0x8000b1 <__TEXT_REGION_LENGTH__+0x7f80b1>
	TCCR1B = 0; //TC1 disabled
    16cc:	10 92 81 00 	sts	0x0081, r1	; 0x800081 <__TEXT_REGION_LENGTH__+0x7f8081>
	TCCR0B = 0; //TC0 disabled
    16d0:	15 bc       	out	0x25, r1	; 37
	
	drinkMaker.closeValves();
    16d2:	83 ed       	ldi	r24, 0xD3	; 211
    16d4:	93 e0       	ldi	r25, 0x03	; 3
    16d6:	0e 94 84 07 	call	0xf08	; 0xf08 <_ZN10DrinkMaker11closeValvesEv>
	
	//Set first state
	_state = WAITING_GLASS;
    16da:	10 92 c6 03 	sts	0x03C6, r1	; 0x8003c6 <_state>
	
	//Reset flags and handles
	show_ok = false;
    16de:	10 92 be 03 	sts	0x03BE, r1	; 0x8003be <show_ok>
	stateHandler = false;
    16e2:	10 92 bd 03 	sts	0x03BD, r1	; 0x8003bd <stateHandler>
	stateHandler2 = false;
    16e6:	10 92 bc 03 	sts	0x03BC, r1	; 0x8003bc <__data_end>
	
	//Reset counters
	timer0_cicle_counter = 0;
    16ea:	10 92 c5 03 	sts	0x03C5, r1	; 0x8003c5 <timer0_cicle_counter+0x1>
    16ee:	10 92 c4 03 	sts	0x03C4, r1	; 0x8003c4 <timer0_cicle_counter>
	timer0_cicle_setpoint = 0;
    16f2:	10 92 c3 03 	sts	0x03C3, r1	; 0x8003c3 <timer0_cicle_setpoint+0x1>
    16f6:	10 92 c2 03 	sts	0x03C2, r1	; 0x8003c2 <timer0_cicle_setpoint>
	timer1_cicle_counter = 0;
    16fa:	10 92 c1 03 	sts	0x03C1, r1	; 0x8003c1 <timer1_cicle_counter+0x1>
    16fe:	10 92 c0 03 	sts	0x03C0, r1	; 0x8003c0 <timer1_cicle_counter>
	
	lcd.clear();
    1702:	89 ec       	ldi	r24, 0xC9	; 201
    1704:	93 e0       	ldi	r25, 0x03	; 3
    1706:	0e 94 44 09 	call	0x1288	; 0x1288 <_ZN3LCD5clearEv>
	
	menu_index = 0;
    170a:	10 92 c8 03 	sts	0x03C8, r1	; 0x8003c8 <menu_index>
	_7seg.updateDisplay(&menu_index);
    170e:	68 ec       	ldi	r22, 0xC8	; 200
    1710:	73 e0       	ldi	r23, 0x03	; 3
    1712:	8a ec       	ldi	r24, 0xCA	; 202
    1714:	93 e0       	ldi	r25, 0x03	; 3
    1716:	0e 94 b1 00 	call	0x162	; 0x162 <_ZN11Display7seg13updateDisplayEPVh>
    171a:	08 95       	ret

0000171c <main>:
}

int main(void)
{
	lcd.init(); //Initializes LCD
    171c:	89 ec       	ldi	r24, 0xC9	; 201
    171e:	93 e0       	ldi	r25, 0x03	; 3
    1720:	0e 94 9b 08 	call	0x1136	; 0x1136 <_ZN3LCD4initEv>
	
	//motor configuration
	DDRB |= (1<<PORTB3); //Sets the PB3 as output (OC2A)
    1724:	84 b1       	in	r24, 0x04	; 4
    1726:	88 60       	ori	r24, 0x08	; 8
    1728:	84 b9       	out	0x04, r24	; 4
	
	TCCR2A = (1<<WGM21); //Sets the timer mode as CTC
    172a:	e0 eb       	ldi	r30, 0xB0	; 176
    172c:	f0 e0       	ldi	r31, 0x00	; 0
    172e:	82 e0       	ldi	r24, 0x02	; 2
    1730:	80 83       	st	Z, r24
	TCCR2A |= (1<<COM2A0); //Toggle output on compare match
    1732:	80 81       	ld	r24, Z
    1734:	80 64       	ori	r24, 0x40	; 64
    1736:	80 83       	st	Z, r24
	TCCR2B = 0; //Disable Timer 2
    1738:	10 92 b1 00 	sts	0x00B1, r1	; 0x8000b1 <__TEXT_REGION_LENGTH__+0x7f80b1>
	OCR2A = 124; //Sets the compare value at 124
    173c:	8c e7       	ldi	r24, 0x7C	; 124
    173e:	80 93 b3 00 	sts	0x00B3, r24	; 0x8000b3 <__TEXT_REGION_LENGTH__+0x7f80b3>
	
	//Timers configuration
	TCCR0A = 0; //TC0 Normal mode
    1742:	14 bc       	out	0x24, r1	; 36
	TCCR0B = 0; //TC0 disabled
    1744:	15 bc       	out	0x25, r1	; 37
	TIMSK0 = (1<<TOIE0); //Enables timer 0 overflow interrupt 
    1746:	81 e0       	ldi	r24, 0x01	; 1
    1748:	80 93 6e 00 	sts	0x006E, r24	; 0x80006e <__TEXT_REGION_LENGTH__+0x7f806e>
	
	TCCR1A = 0; //TC1 Normal mode
    174c:	10 92 80 00 	sts	0x0080, r1	; 0x800080 <__TEXT_REGION_LENGTH__+0x7f8080>
	TCCR1B = 0; //TC1 disabled
    1750:	10 92 81 00 	sts	0x0081, r1	; 0x800081 <__TEXT_REGION_LENGTH__+0x7f8081>
	TIMSK1 = (1<<TOIE1); //Enables timer 1 overflow interrupt
    1754:	80 93 6f 00 	sts	0x006F, r24	; 0x80006f <__TEXT_REGION_LENGTH__+0x7f806f>
	
	//Interrupts configuration
	EICRA = (1<<ISC11) | (1<<ISC10); //Rising edge to INT1
    1758:	e9 e6       	ldi	r30, 0x69	; 105
    175a:	f0 e0       	ldi	r31, 0x00	; 0
    175c:	8c e0       	ldi	r24, 0x0C	; 12
    175e:	80 83       	st	Z, r24
	EICRA |= (1<<ISC01) | (1<<ISC00); //Rising edge to INT0
    1760:	80 81       	ld	r24, Z
    1762:	83 60       	ori	r24, 0x03	; 3
    1764:	80 83       	st	Z, r24
	
	EIMSK = (1<<INT1) | (1<<INT0); //Enables INT0 and INT1
    1766:	83 e0       	ldi	r24, 0x03	; 3
    1768:	8d bb       	out	0x1d, r24	; 29
	sei(); //Enables global interrupt
    176a:	78 94       	sei
	
	//Direction ports configuration
	clr_bit(DDRD, PORTD2); //D2 as input
    176c:	8a b1       	in	r24, 0x0a	; 10
    176e:	8b 7f       	andi	r24, 0xFB	; 251
    1770:	8a b9       	out	0x0a, r24	; 10
	clr_bit(DDRD, PORTD3); //D3 as input
    1772:	8a b1       	in	r24, 0x0a	; 10
    1774:	87 7f       	andi	r24, 0xF7	; 247
    1776:	8a b9       	out	0x0a, r24	; 10
	clr_bit(DDRC, PORTC4); //C4 as input
    1778:	87 b1       	in	r24, 0x07	; 7
    177a:	8f 7e       	andi	r24, 0xEF	; 239
    177c:	87 b9       	out	0x07, r24	; 7
	set_bit(DDRC, PORTC5); //C5 as output
    177e:	87 b1       	in	r24, 0x07	; 7
    1780:	80 62       	ori	r24, 0x20	; 32
    1782:	87 b9       	out	0x07, r24	; 7
	
	_7seg.attachToPorts(PORTC0, PORTC1, PORTC2, PORTC3); //Attachs the 7seg display at C0, C1, C2 and C3 ports
    1784:	03 e0       	ldi	r16, 0x03	; 3
    1786:	22 e0       	ldi	r18, 0x02	; 2
    1788:	41 e0       	ldi	r20, 0x01	; 1
    178a:	60 e0       	ldi	r22, 0x00	; 0
    178c:	8a ec       	ldi	r24, 0xCA	; 202
    178e:	93 e0       	ldi	r25, 0x03	; 3
    1790:	0e 94 86 00 	call	0x10c	; 0x10c <_ZN11Display7seg13attachToPortsEhhhh>
	serial.show_menu(); //Shows the menu at serial
    1794:	8e ec       	ldi	r24, 0xCE	; 206
    1796:	93 e0       	ldi	r25, 0x03	; 3
    1798:	0e 94 56 0e 	call	0x1cac	; 0x1cac <_ZN6Serial9show_menuEv>
	lcd.clear();
    179c:	89 ec       	ldi	r24, 0xC9	; 201
    179e:	93 e0       	ldi	r25, 0x03	; 3
    17a0:	0e 94 44 09 	call	0x1288	; 0x1288 <_ZN3LCD5clearEv>
	
	_state = WAITING_GLASS; //Initial state of the machine
    17a4:	10 92 c6 03 	sts	0x03C6, r1	; 0x8003c6 <_state>
	
	while (1)
	{
		if(tst_bit(PINC, PORTC4) > 0){ //If the start-stop button is pressed...
    17a8:	34 9b       	sbis	0x06, 4	; 6
    17aa:	56 c1       	rjmp	.+684    	; 0x1a58 <main+0x33c>
			set_bit(PORTC, PORTC5); //Turns on LED on/off.
    17ac:	88 b1       	in	r24, 0x08	; 8
    17ae:	80 62       	ori	r24, 0x20	; 32
    17b0:	88 b9       	out	0x08, r24	; 8
			switch(_state){
    17b2:	80 91 c6 03 	lds	r24, 0x03C6	; 0x8003c6 <_state>
    17b6:	82 30       	cpi	r24, 0x02	; 2
    17b8:	09 f4       	brne	.+2      	; 0x17bc <main+0xa0>
    17ba:	6a c0       	rjmp	.+212    	; 0x1890 <main+0x174>
    17bc:	28 f4       	brcc	.+10     	; 0x17c8 <main+0xac>
    17be:	88 23       	and	r24, r24
    17c0:	61 f0       	breq	.+24     	; 0x17da <main+0xbe>
    17c2:	81 30       	cpi	r24, 0x01	; 1
    17c4:	b9 f1       	breq	.+110    	; 0x1834 <main+0x118>
    17c6:	f0 cf       	rjmp	.-32     	; 0x17a8 <main+0x8c>
    17c8:	84 30       	cpi	r24, 0x04	; 4
    17ca:	09 f4       	brne	.+2      	; 0x17ce <main+0xb2>
    17cc:	d6 c0       	rjmp	.+428    	; 0x197a <main+0x25e>
    17ce:	08 f4       	brcc	.+2      	; 0x17d2 <main+0xb6>
    17d0:	9c c0       	rjmp	.+312    	; 0x190a <main+0x1ee>
    17d2:	85 30       	cpi	r24, 0x05	; 5
    17d4:	09 f4       	brne	.+2      	; 0x17d8 <main+0xbc>
    17d6:	21 c1       	rjmp	.+578    	; 0x1a1a <main+0x2fe>
    17d8:	e7 cf       	rjmp	.-50     	; 0x17a8 <main+0x8c>
				case WAITING_GLASS:
					if(debug_mode == true){
    17da:	80 91 bf 03 	lds	r24, 0x03BF	; 0x8003bf <debug_mode>
    17de:	88 23       	and	r24, r24
    17e0:	a1 f0       	breq	.+40     	; 0x180a <main+0xee>
						serial.transmit("WAINTING GLASS");
    17e2:	67 ed       	ldi	r22, 0xD7	; 215
    17e4:	72 e0       	ldi	r23, 0x02	; 2
    17e6:	8e ec       	ldi	r24, 0xCE	; 206
    17e8:	93 e0       	ldi	r25, 0x03	; 3
    17ea:	0e 94 42 0e 	call	0x1c84	; 0x1c84 <_ZN6Serial8transmitEPc>
						serial.transmitChar(NEWLINE);
    17ee:	6d e0       	ldi	r22, 0x0D	; 13
    17f0:	8e ec       	ldi	r24, 0xCE	; 206
    17f2:	93 e0       	ldi	r25, 0x03	; 3
    17f4:	0e 94 4f 0e 	call	0x1c9e	; 0x1c9e <_ZN6Serial12transmitCharEc>
    17f8:	2f ef       	ldi	r18, 0xFF	; 255
    17fa:	81 ee       	ldi	r24, 0xE1	; 225
    17fc:	94 e0       	ldi	r25, 0x04	; 4
    17fe:	21 50       	subi	r18, 0x01	; 1
    1800:	80 40       	sbci	r24, 0x00	; 0
    1802:	90 40       	sbci	r25, 0x00	; 0
    1804:	e1 f7       	brne	.-8      	; 0x17fe <main+0xe2>
    1806:	00 c0       	rjmp	.+0      	; 0x1808 <main+0xec>
    1808:	00 00       	nop
						_delay_ms(100);
					}
					if(show_ok == false){
    180a:	80 91 be 03 	lds	r24, 0x03BE	; 0x8003be <show_ok>
    180e:	81 11       	cpse	r24, r1
    1810:	09 c0       	rjmp	.+18     	; 0x1824 <main+0x108>
						lcd.write("Insira o copo");
    1812:	66 ee       	ldi	r22, 0xE6	; 230
    1814:	72 e0       	ldi	r23, 0x02	; 2
    1816:	89 ec       	ldi	r24, 0xC9	; 201
    1818:	93 e0       	ldi	r25, 0x03	; 3
    181a:	0e 94 21 09 	call	0x1242	; 0x1242 <_ZN3LCD5writeEPc>
						show_ok = true;
    181e:	81 e0       	ldi	r24, 0x01	; 1
    1820:	80 93 be 03 	sts	0x03BE, r24	; 0x8003be <show_ok>
					}
				
					//If the glass is present
					if(tst_bit(PINB, PORTB7) > 0){
    1824:	1f 9b       	sbis	0x03, 7	; 3
    1826:	c0 cf       	rjmp	.-128    	; 0x17a8 <main+0x8c>
						_state = SELECTING_DRINK;
    1828:	81 e0       	ldi	r24, 0x01	; 1
    182a:	80 93 c6 03 	sts	0x03C6, r24	; 0x8003c6 <_state>
						show_ok = false;
    182e:	10 92 be 03 	sts	0x03BE, r1	; 0x8003be <show_ok>
    1832:	ba cf       	rjmp	.-140    	; 0x17a8 <main+0x8c>
					}
				break;
				
				case SELECTING_DRINK:
					if(debug_mode == true){
    1834:	80 91 bf 03 	lds	r24, 0x03BF	; 0x8003bf <debug_mode>
    1838:	88 23       	and	r24, r24
    183a:	a1 f0       	breq	.+40     	; 0x1864 <main+0x148>
						serial.transmit("SELECTING DRINK");
    183c:	64 ef       	ldi	r22, 0xF4	; 244
    183e:	72 e0       	ldi	r23, 0x02	; 2
    1840:	8e ec       	ldi	r24, 0xCE	; 206
    1842:	93 e0       	ldi	r25, 0x03	; 3
    1844:	0e 94 42 0e 	call	0x1c84	; 0x1c84 <_ZN6Serial8transmitEPc>
						serial.transmitChar(NEWLINE);
    1848:	6d e0       	ldi	r22, 0x0D	; 13
    184a:	8e ec       	ldi	r24, 0xCE	; 206
    184c:	93 e0       	ldi	r25, 0x03	; 3
    184e:	0e 94 4f 0e 	call	0x1c9e	; 0x1c9e <_ZN6Serial12transmitCharEc>
    1852:	2f ef       	ldi	r18, 0xFF	; 255
    1854:	81 ee       	ldi	r24, 0xE1	; 225
    1856:	94 e0       	ldi	r25, 0x04	; 4
    1858:	21 50       	subi	r18, 0x01	; 1
    185a:	80 40       	sbci	r24, 0x00	; 0
    185c:	90 40       	sbci	r25, 0x00	; 0
    185e:	e1 f7       	brne	.-8      	; 0x1858 <main+0x13c>
    1860:	00 c0       	rjmp	.+0      	; 0x1862 <main+0x146>
    1862:	00 00       	nop
						_delay_ms(100);
					}
					if(show_ok == false){
    1864:	80 91 be 03 	lds	r24, 0x03BE	; 0x8003be <show_ok>
    1868:	81 11       	cpse	r24, r1
    186a:	0d c0       	rjmp	.+26     	; 0x1886 <main+0x16a>
						lcd.clear();
    186c:	89 ec       	ldi	r24, 0xC9	; 201
    186e:	93 e0       	ldi	r25, 0x03	; 3
    1870:	0e 94 44 09 	call	0x1288	; 0x1288 <_ZN3LCD5clearEv>
						lcd.write("Selecione bebida");
    1874:	64 e0       	ldi	r22, 0x04	; 4
    1876:	73 e0       	ldi	r23, 0x03	; 3
    1878:	89 ec       	ldi	r24, 0xC9	; 201
    187a:	93 e0       	ldi	r25, 0x03	; 3
    187c:	0e 94 21 09 	call	0x1242	; 0x1242 <_ZN3LCD5writeEPc>
						show_ok = true;
    1880:	81 e0       	ldi	r24, 0x01	; 1
    1882:	80 93 be 03 	sts	0x03BE, r24	; 0x8003be <show_ok>
					}
					
					if(tst_bit(PINB, PORTB7) == 0){
    1886:	1f 99       	sbic	0x03, 7	; 3
    1888:	8f cf       	rjmp	.-226    	; 0x17a8 <main+0x8c>
						reset();
    188a:	0e 94 24 0b 	call	0x1648	; 0x1648 <_Z5resetv>
    188e:	8c cf       	rjmp	.-232    	; 0x17a8 <main+0x8c>
					}
				break;
				
				case MILLING_COFFEE:
					if(debug_mode == true){
    1890:	80 91 bf 03 	lds	r24, 0x03BF	; 0x8003bf <debug_mode>
    1894:	88 23       	and	r24, r24
    1896:	a1 f0       	breq	.+40     	; 0x18c0 <main+0x1a4>
						serial.transmit("MILLING_COFFEE");
    1898:	65 e1       	ldi	r22, 0x15	; 21
    189a:	73 e0       	ldi	r23, 0x03	; 3
    189c:	8e ec       	ldi	r24, 0xCE	; 206
    189e:	93 e0       	ldi	r25, 0x03	; 3
    18a0:	0e 94 42 0e 	call	0x1c84	; 0x1c84 <_ZN6Serial8transmitEPc>
						serial.transmitChar(NEWLINE);
    18a4:	6d e0       	ldi	r22, 0x0D	; 13
    18a6:	8e ec       	ldi	r24, 0xCE	; 206
    18a8:	93 e0       	ldi	r25, 0x03	; 3
    18aa:	0e 94 4f 0e 	call	0x1c9e	; 0x1c9e <_ZN6Serial12transmitCharEc>
    18ae:	2f ef       	ldi	r18, 0xFF	; 255
    18b0:	81 ee       	ldi	r24, 0xE1	; 225
    18b2:	94 e0       	ldi	r25, 0x04	; 4
    18b4:	21 50       	subi	r18, 0x01	; 1
    18b6:	80 40       	sbci	r24, 0x00	; 0
    18b8:	90 40       	sbci	r25, 0x00	; 0
    18ba:	e1 f7       	brne	.-8      	; 0x18b4 <main+0x198>
    18bc:	00 c0       	rjmp	.+0      	; 0x18be <main+0x1a2>
    18be:	00 00       	nop
						_delay_ms(100);
					}
					if(stateHandler == false){
    18c0:	80 91 bd 03 	lds	r24, 0x03BD	; 0x8003bd <stateHandler>
    18c4:	81 11       	cpse	r24, r1
    18c6:	1c c0       	rjmp	.+56     	; 0x1900 <main+0x1e4>
						if(drinkMaker.drinkHasCoffee(&menu_index)){ //Verifies if the selected drink has coffee to mill
    18c8:	68 ec       	ldi	r22, 0xC8	; 200
    18ca:	73 e0       	ldi	r23, 0x03	; 3
    18cc:	83 ed       	ldi	r24, 0xD3	; 211
    18ce:	93 e0       	ldi	r25, 0x03	; 3
    18d0:	0e 94 95 07 	call	0xf2a	; 0xf2a <_ZN10DrinkMaker14drinkHasCoffeeEPVh>
    18d4:	88 23       	and	r24, r24
    18d6:	59 f0       	breq	.+22     	; 0x18ee <main+0x1d2>
							stateHandler = true;
    18d8:	81 e0       	ldi	r24, 0x01	; 1
    18da:	80 93 bd 03 	sts	0x03BD, r24	; 0x8003bd <stateHandler>
							drinkMaker.millCoffee(); //Enables the motor to mill the coffee
    18de:	83 ed       	ldi	r24, 0xD3	; 211
    18e0:	93 e0       	ldi	r25, 0x03	; 3
    18e2:	0e 94 13 07 	call	0xe26	; 0xe26 <_ZN10DrinkMaker10millCoffeeEv>
							TCCR1B = (1<<CS11); //Set TC1 prescale 8 and enables timer
    18e6:	82 e0       	ldi	r24, 0x02	; 2
    18e8:	80 93 81 00 	sts	0x0081, r24	; 0x800081 <__TEXT_REGION_LENGTH__+0x7f8081>
    18ec:	09 c0       	rjmp	.+18     	; 0x1900 <main+0x1e4>
						}
						else{
							lcd.clear();
    18ee:	89 ec       	ldi	r24, 0xC9	; 201
    18f0:	93 e0       	ldi	r25, 0x03	; 3
    18f2:	0e 94 44 09 	call	0x1288	; 0x1288 <_ZN3LCD5clearEv>
							_state = PREPARING_DRINK;
    18f6:	83 e0       	ldi	r24, 0x03	; 3
    18f8:	80 93 c6 03 	sts	0x03C6, r24	; 0x8003c6 <_state>
							show_ok = false;
    18fc:	10 92 be 03 	sts	0x03BE, r1	; 0x8003be <show_ok>
						}
					}
				
					if(tst_bit(PINB, PORTB7) == 0){
    1900:	1f 99       	sbic	0x03, 7	; 3
    1902:	52 cf       	rjmp	.-348    	; 0x17a8 <main+0x8c>
						reset();
    1904:	0e 94 24 0b 	call	0x1648	; 0x1648 <_Z5resetv>
    1908:	4f cf       	rjmp	.-354    	; 0x17a8 <main+0x8c>
					}
				break;
				
				case PREPARING_DRINK:
					TCCR2B = 0; //Motor disabled
    190a:	10 92 b1 00 	sts	0x00B1, r1	; 0x8000b1 <__TEXT_REGION_LENGTH__+0x7f80b1>
					TCCR1B = 0; //TC1 disabled
    190e:	10 92 81 00 	sts	0x0081, r1	; 0x800081 <__TEXT_REGION_LENGTH__+0x7f8081>
					if(debug_mode == true){
    1912:	80 91 bf 03 	lds	r24, 0x03BF	; 0x8003bf <debug_mode>
    1916:	88 23       	and	r24, r24
    1918:	a1 f0       	breq	.+40     	; 0x1942 <main+0x226>
						serial.transmit("PREPARING DRINK");
    191a:	64 e2       	ldi	r22, 0x24	; 36
    191c:	73 e0       	ldi	r23, 0x03	; 3
    191e:	8e ec       	ldi	r24, 0xCE	; 206
    1920:	93 e0       	ldi	r25, 0x03	; 3
    1922:	0e 94 42 0e 	call	0x1c84	; 0x1c84 <_ZN6Serial8transmitEPc>
						serial.transmitChar(NEWLINE);
    1926:	6d e0       	ldi	r22, 0x0D	; 13
    1928:	8e ec       	ldi	r24, 0xCE	; 206
    192a:	93 e0       	ldi	r25, 0x03	; 3
    192c:	0e 94 4f 0e 	call	0x1c9e	; 0x1c9e <_ZN6Serial12transmitCharEc>
    1930:	2f ef       	ldi	r18, 0xFF	; 255
    1932:	81 ee       	ldi	r24, 0xE1	; 225
    1934:	94 e0       	ldi	r25, 0x04	; 4
    1936:	21 50       	subi	r18, 0x01	; 1
    1938:	80 40       	sbci	r24, 0x00	; 0
    193a:	90 40       	sbci	r25, 0x00	; 0
    193c:	e1 f7       	brne	.-8      	; 0x1936 <main+0x21a>
    193e:	00 c0       	rjmp	.+0      	; 0x1940 <main+0x224>
    1940:	00 00       	nop
						_delay_ms(100);
					}
					if(stateHandler2 == false){
    1942:	80 91 bc 03 	lds	r24, 0x03BC	; 0x8003bc <__data_end>
    1946:	81 11       	cpse	r24, r1
    1948:	13 c0       	rjmp	.+38     	; 0x1970 <main+0x254>
						stateHandler2 = true;
    194a:	81 e0       	ldi	r24, 0x01	; 1
    194c:	80 93 bc 03 	sts	0x03BC, r24	; 0x8003bc <__data_end>
						lcd.clear();
    1950:	89 ec       	ldi	r24, 0xC9	; 201
    1952:	93 e0       	ldi	r25, 0x03	; 3
    1954:	0e 94 44 09 	call	0x1288	; 0x1288 <_ZN3LCD5clearEv>
						setTimerSetPoint(&menu_index); //Sets the set-point to open the valves
    1958:	88 ec       	ldi	r24, 0xC8	; 200
    195a:	93 e0       	ldi	r25, 0x03	; 3
    195c:	0e 94 e6 0a 	call	0x15cc	; 0x15cc <_Z16setTimerSetPointPVh>
						drinkMaker.openValves(&menu_index); //Open the respective valves
    1960:	68 ec       	ldi	r22, 0xC8	; 200
    1962:	73 e0       	ldi	r23, 0x03	; 3
    1964:	83 ed       	ldi	r24, 0xD3	; 211
    1966:	93 e0       	ldi	r25, 0x03	; 3
    1968:	0e 94 31 07 	call	0xe62	; 0xe62 <_ZN10DrinkMaker10openValvesEPVh>
						TCCR0B = (1<<CS02) | (1<<CS00); //Set prescale 1024 and enables timer 0
    196c:	85 e0       	ldi	r24, 0x05	; 5
    196e:	85 bd       	out	0x25, r24	; 37
					}
				
					if(tst_bit(PINB, PORTB7) == 0){
    1970:	1f 99       	sbic	0x03, 7	; 3
    1972:	1a cf       	rjmp	.-460    	; 0x17a8 <main+0x8c>
						reset();
    1974:	0e 94 24 0b 	call	0x1648	; 0x1648 <_Z5resetv>
    1978:	17 cf       	rjmp	.-466    	; 0x17a8 <main+0x8c>
					}
				
				break;
				
				case REMOVING_GLASS:
					TCCR0B = 0; //TC0 disabled
    197a:	15 bc       	out	0x25, r1	; 37
					drinkMaker.closeValves(); //Close all the valves
    197c:	83 ed       	ldi	r24, 0xD3	; 211
    197e:	93 e0       	ldi	r25, 0x03	; 3
    1980:	0e 94 84 07 	call	0xf08	; 0xf08 <_ZN10DrinkMaker11closeValvesEv>
					if(debug_mode == true){
    1984:	80 91 bf 03 	lds	r24, 0x03BF	; 0x8003bf <debug_mode>
    1988:	88 23       	and	r24, r24
    198a:	59 f0       	breq	.+22     	; 0x19a2 <main+0x286>
						serial.transmit("REMOMVING GLASS");
    198c:	64 e3       	ldi	r22, 0x34	; 52
    198e:	73 e0       	ldi	r23, 0x03	; 3
    1990:	8e ec       	ldi	r24, 0xCE	; 206
    1992:	93 e0       	ldi	r25, 0x03	; 3
    1994:	0e 94 42 0e 	call	0x1c84	; 0x1c84 <_ZN6Serial8transmitEPc>
						serial.transmitChar(NEWLINE);
    1998:	6d e0       	ldi	r22, 0x0D	; 13
    199a:	8e ec       	ldi	r24, 0xCE	; 206
    199c:	93 e0       	ldi	r25, 0x03	; 3
    199e:	0e 94 4f 0e 	call	0x1c9e	; 0x1c9e <_ZN6Serial12transmitCharEc>
					
					}
					if (show_ok==false)
    19a2:	80 91 be 03 	lds	r24, 0x03BE	; 0x8003be <show_ok>
    19a6:	81 11       	cpse	r24, r1
    19a8:	0d c0       	rjmp	.+26     	; 0x19c4 <main+0x2a8>
					{
						lcd.clear();
    19aa:	89 ec       	ldi	r24, 0xC9	; 201
    19ac:	93 e0       	ldi	r25, 0x03	; 3
    19ae:	0e 94 44 09 	call	0x1288	; 0x1288 <_ZN3LCD5clearEv>
						lcd.write("Retire o copo");
    19b2:	64 e4       	ldi	r22, 0x44	; 68
    19b4:	73 e0       	ldi	r23, 0x03	; 3
    19b6:	89 ec       	ldi	r24, 0xC9	; 201
    19b8:	93 e0       	ldi	r25, 0x03	; 3
    19ba:	0e 94 21 09 	call	0x1242	; 0x1242 <_ZN3LCD5writeEPc>
						show_ok = true;
    19be:	81 e0       	ldi	r24, 0x01	; 1
    19c0:	80 93 be 03 	sts	0x03BE, r24	; 0x8003be <show_ok>
    19c4:	2f ef       	ldi	r18, 0xFF	; 255
    19c6:	81 ee       	ldi	r24, 0xE1	; 225
    19c8:	94 e0       	ldi	r25, 0x04	; 4
    19ca:	21 50       	subi	r18, 0x01	; 1
    19cc:	80 40       	sbci	r24, 0x00	; 0
    19ce:	90 40       	sbci	r25, 0x00	; 0
    19d0:	e1 f7       	brne	.-8      	; 0x19ca <main+0x2ae>
    19d2:	00 c0       	rjmp	.+0      	; 0x19d4 <main+0x2b8>
    19d4:	00 00       	nop
					}
				
					_delay_ms(100); //Avoids USART spam
				
					//If the glass was removed
					if(tst_bit(PINB, PORTB7) == 0){
    19d6:	1f 99       	sbic	0x03, 7	; 3
    19d8:	e7 ce       	rjmp	.-562    	; 0x17a8 <main+0x8c>
						lcd.clear();
    19da:	89 ec       	ldi	r24, 0xC9	; 201
    19dc:	93 e0       	ldi	r25, 0x03	; 3
    19de:	0e 94 44 09 	call	0x1288	; 0x1288 <_ZN3LCD5clearEv>
						lcd.write("Obrigado");
    19e2:	62 e5       	ldi	r22, 0x52	; 82
    19e4:	73 e0       	ldi	r23, 0x03	; 3
    19e6:	89 ec       	ldi	r24, 0xC9	; 201
    19e8:	93 e0       	ldi	r25, 0x03	; 3
    19ea:	0e 94 21 09 	call	0x1242	; 0x1242 <_ZN3LCD5writeEPc>
    19ee:	2f ef       	ldi	r18, 0xFF	; 255
    19f0:	83 ed       	ldi	r24, 0xD3	; 211
    19f2:	90 e3       	ldi	r25, 0x30	; 48
    19f4:	21 50       	subi	r18, 0x01	; 1
    19f6:	80 40       	sbci	r24, 0x00	; 0
    19f8:	90 40       	sbci	r25, 0x00	; 0
    19fa:	e1 f7       	brne	.-8      	; 0x19f4 <main+0x2d8>
    19fc:	00 c0       	rjmp	.+0      	; 0x19fe <main+0x2e2>
    19fe:	00 00       	nop
						_delay_ms(1000);
						lcd.clear();
    1a00:	89 ec       	ldi	r24, 0xC9	; 201
    1a02:	93 e0       	ldi	r25, 0x03	; 3
    1a04:	0e 94 44 09 	call	0x1288	; 0x1288 <_ZN3LCD5clearEv>
						_state = WAITING_GLASS;
    1a08:	10 92 c6 03 	sts	0x03C6, r1	; 0x8003c6 <_state>
						show_ok = false;
    1a0c:	10 92 be 03 	sts	0x03BE, r1	; 0x8003be <show_ok>
						stateHandler = false;
    1a10:	10 92 bd 03 	sts	0x03BD, r1	; 0x8003bd <stateHandler>
						stateHandler2 = false;
    1a14:	10 92 bc 03 	sts	0x03BC, r1	; 0x8003bc <__data_end>
    1a18:	c7 ce       	rjmp	.-626    	; 0x17a8 <main+0x8c>
					}
				break;
				
				case REFUELLING_MACHINE:
					if(debug_mode == true){
    1a1a:	80 91 bf 03 	lds	r24, 0x03BF	; 0x8003bf <debug_mode>
    1a1e:	88 23       	and	r24, r24
    1a20:	a1 f0       	breq	.+40     	; 0x1a4a <main+0x32e>
						serial.transmit("REFUELLING_MACHINE");
    1a22:	6b e5       	ldi	r22, 0x5B	; 91
    1a24:	73 e0       	ldi	r23, 0x03	; 3
    1a26:	8e ec       	ldi	r24, 0xCE	; 206
    1a28:	93 e0       	ldi	r25, 0x03	; 3
    1a2a:	0e 94 42 0e 	call	0x1c84	; 0x1c84 <_ZN6Serial8transmitEPc>
						serial.transmitChar(NEWLINE);
    1a2e:	6d e0       	ldi	r22, 0x0D	; 13
    1a30:	8e ec       	ldi	r24, 0xCE	; 206
    1a32:	93 e0       	ldi	r25, 0x03	; 3
    1a34:	0e 94 4f 0e 	call	0x1c9e	; 0x1c9e <_ZN6Serial12transmitCharEc>
    1a38:	2f ef       	ldi	r18, 0xFF	; 255
    1a3a:	81 ee       	ldi	r24, 0xE1	; 225
    1a3c:	94 e0       	ldi	r25, 0x04	; 4
    1a3e:	21 50       	subi	r18, 0x01	; 1
    1a40:	80 40       	sbci	r24, 0x00	; 0
    1a42:	90 40       	sbci	r25, 0x00	; 0
    1a44:	e1 f7       	brne	.-8      	; 0x1a3e <main+0x322>
    1a46:	00 c0       	rjmp	.+0      	; 0x1a48 <main+0x32c>
    1a48:	00 00       	nop
						_delay_ms(100);
					}
					drinkMaker.refuel(); //Refuel the machine
    1a4a:	83 ed       	ldi	r24, 0xD3	; 211
    1a4c:	93 e0       	ldi	r25, 0x03	; 3
    1a4e:	0e 94 9b 01 	call	0x336	; 0x336 <_ZN10DrinkMaker6refuelEv>
					_state = WAITING_GLASS;
    1a52:	10 92 c6 03 	sts	0x03C6, r1	; 0x8003c6 <_state>
				break;
    1a56:	a8 ce       	rjmp	.-688    	; 0x17a8 <main+0x8c>
			}
		}
		else{
			clr_bit(PORTC, PORTC5); //Turn off the on-off led
    1a58:	88 b1       	in	r24, 0x08	; 8
    1a5a:	8f 7d       	andi	r24, 0xDF	; 223
    1a5c:	88 b9       	out	0x08, r24	; 8
			reset2(); //Resets the machine
    1a5e:	0e 94 64 0b 	call	0x16c8	; 0x16c8 <_Z6reset2v>
    1a62:	a2 ce       	rjmp	.-700    	; 0x17a8 <main+0x8c>

00001a64 <_GLOBAL__sub_I_drinkMaker>:
		}	
	}
}
    1a64:	6f ef       	ldi	r22, 0xFF	; 255
    1a66:	7f ef       	ldi	r23, 0xFF	; 255
    1a68:	81 e0       	ldi	r24, 0x01	; 1
    1a6a:	90 e0       	ldi	r25, 0x00	; 0
    1a6c:	0e 94 52 09 	call	0x12a4	; 0x12a4 <_Z41__static_initialization_and_destruction_0ii>
    1a70:	08 95       	ret

00001a72 <_GLOBAL__sub_D_drinkMaker>:
    1a72:	6f ef       	ldi	r22, 0xFF	; 255
    1a74:	7f ef       	ldi	r23, 0xFF	; 255
    1a76:	80 e0       	ldi	r24, 0x00	; 0
    1a78:	90 e0       	ldi	r25, 0x00	; 0
    1a7a:	0e 94 52 09 	call	0x12a4	; 0x12a4 <_Z41__static_initialization_and_destruction_0ii>
    1a7e:	08 95       	ret

00001a80 <_ZN5MotorC1Ev>:
    1a80:	08 95       	ret

00001a82 <_ZN5MotorD1Ev>:
    1a82:	08 95       	ret

00001a84 <_ZN5Motor5setupEv>:
    1a84:	84 b1       	in	r24, 0x04	; 4
    1a86:	88 60       	ori	r24, 0x08	; 8
    1a88:	84 b9       	out	0x04, r24	; 4
    1a8a:	e0 eb       	ldi	r30, 0xB0	; 176
    1a8c:	f0 e0       	ldi	r31, 0x00	; 0
    1a8e:	82 e0       	ldi	r24, 0x02	; 2
    1a90:	80 83       	st	Z, r24
    1a92:	80 81       	ld	r24, Z
    1a94:	80 64       	ori	r24, 0x40	; 64
    1a96:	80 83       	st	Z, r24
    1a98:	10 92 b1 00 	sts	0x00B1, r1	; 0x8000b1 <__TEXT_REGION_LENGTH__+0x7f80b1>
    1a9c:	8c e7       	ldi	r24, 0x7C	; 124
    1a9e:	80 93 b3 00 	sts	0x00B3, r24	; 0x8000b3 <__TEXT_REGION_LENGTH__+0x7f80b3>
    1aa2:	08 95       	ret

00001aa4 <_ZN5Motor6turnOnEv>:
    1aa4:	83 e0       	ldi	r24, 0x03	; 3
    1aa6:	80 93 b1 00 	sts	0x00B1, r24	; 0x8000b1 <__TEXT_REGION_LENGTH__+0x7f80b1>
    1aaa:	08 95       	ret

00001aac <_ZN6SerialD1Ev>:
    1aac:	08 95       	ret

00001aae <_ZN6Serial11setBaudRateEj>:
    1aae:	fc 01       	movw	r30, r24
    1ab0:	71 83       	std	Z+1, r23	; 0x01
    1ab2:	60 83       	st	Z, r22
    1ab4:	cb 01       	movw	r24, r22
    1ab6:	a0 e0       	ldi	r26, 0x00	; 0
    1ab8:	b0 e0       	ldi	r27, 0x00	; 0
    1aba:	88 0f       	add	r24, r24
    1abc:	99 1f       	adc	r25, r25
    1abe:	aa 1f       	adc	r26, r26
    1ac0:	bb 1f       	adc	r27, r27
    1ac2:	88 0f       	add	r24, r24
    1ac4:	99 1f       	adc	r25, r25
    1ac6:	aa 1f       	adc	r26, r26
    1ac8:	bb 1f       	adc	r27, r27
    1aca:	9c 01       	movw	r18, r24
    1acc:	ad 01       	movw	r20, r26
    1ace:	22 0f       	add	r18, r18
    1ad0:	33 1f       	adc	r19, r19
    1ad2:	44 1f       	adc	r20, r20
    1ad4:	55 1f       	adc	r21, r21
    1ad6:	22 0f       	add	r18, r18
    1ad8:	33 1f       	adc	r19, r19
    1ada:	44 1f       	adc	r20, r20
    1adc:	55 1f       	adc	r21, r21
    1ade:	60 e0       	ldi	r22, 0x00	; 0
    1ae0:	74 e2       	ldi	r23, 0x24	; 36
    1ae2:	84 ef       	ldi	r24, 0xF4	; 244
    1ae4:	90 e0       	ldi	r25, 0x00	; 0
    1ae6:	0e 94 c3 10 	call	0x2186	; 0x2186 <__udivmodsi4>
    1aea:	21 50       	subi	r18, 0x01	; 1
    1aec:	31 09       	sbc	r19, r1
    1aee:	30 93 c5 00 	sts	0x00C5, r19	; 0x8000c5 <__TEXT_REGION_LENGTH__+0x7f80c5>
    1af2:	20 93 c4 00 	sts	0x00C4, r18	; 0x8000c4 <__TEXT_REGION_LENGTH__+0x7f80c4>
    1af6:	08 95       	ret

00001af8 <_ZN6Serial10setStopBitEh>:
    1af8:	fc 01       	movw	r30, r24
    1afa:	62 83       	std	Z+2, r22	; 0x02
    1afc:	61 30       	cpi	r22, 0x01	; 1
    1afe:	19 f0       	breq	.+6      	; 0x1b06 <_ZN6Serial10setStopBitEh+0xe>
    1b00:	62 30       	cpi	r22, 0x02	; 2
    1b02:	39 f0       	breq	.+14     	; 0x1b12 <_ZN6Serial10setStopBitEh+0x1a>
    1b04:	0c c0       	rjmp	.+24     	; 0x1b1e <_ZN6Serial10setStopBitEh+0x26>
    1b06:	e2 ec       	ldi	r30, 0xC2	; 194
    1b08:	f0 e0       	ldi	r31, 0x00	; 0
    1b0a:	80 81       	ld	r24, Z
    1b0c:	87 7f       	andi	r24, 0xF7	; 247
    1b0e:	80 83       	st	Z, r24
    1b10:	08 95       	ret
    1b12:	e2 ec       	ldi	r30, 0xC2	; 194
    1b14:	f0 e0       	ldi	r31, 0x00	; 0
    1b16:	80 81       	ld	r24, Z
    1b18:	88 60       	ori	r24, 0x08	; 8
    1b1a:	80 83       	st	Z, r24
    1b1c:	08 95       	ret
    1b1e:	e2 ec       	ldi	r30, 0xC2	; 194
    1b20:	f0 e0       	ldi	r31, 0x00	; 0
    1b22:	80 81       	ld	r24, Z
    1b24:	87 7f       	andi	r24, 0xF7	; 247
    1b26:	80 83       	st	Z, r24
    1b28:	08 95       	ret

00001b2a <_ZN6Serial11setByteSizeEh>:
    1b2a:	fc 01       	movw	r30, r24
    1b2c:	63 83       	std	Z+3, r22	; 0x03
    1b2e:	67 30       	cpi	r22, 0x07	; 7
    1b30:	19 f1       	breq	.+70     	; 0x1b78 <_ZN6Serial11setByteSizeEh+0x4e>
    1b32:	28 f4       	brcc	.+10     	; 0x1b3e <_ZN6Serial11setByteSizeEh+0x14>
    1b34:	65 30       	cpi	r22, 0x05	; 5
    1b36:	41 f0       	breq	.+16     	; 0x1b48 <_ZN6Serial11setByteSizeEh+0x1e>
    1b38:	66 30       	cpi	r22, 0x06	; 6
    1b3a:	91 f0       	breq	.+36     	; 0x1b60 <_ZN6Serial11setByteSizeEh+0x36>
    1b3c:	41 c0       	rjmp	.+130    	; 0x1bc0 <_ZN6Serial11setByteSizeEh+0x96>
    1b3e:	68 30       	cpi	r22, 0x08	; 8
    1b40:	39 f1       	breq	.+78     	; 0x1b90 <_ZN6Serial11setByteSizeEh+0x66>
    1b42:	69 30       	cpi	r22, 0x09	; 9
    1b44:	89 f1       	breq	.+98     	; 0x1ba8 <_ZN6Serial11setByteSizeEh+0x7e>
    1b46:	3c c0       	rjmp	.+120    	; 0x1bc0 <_ZN6Serial11setByteSizeEh+0x96>
    1b48:	e2 ec       	ldi	r30, 0xC2	; 194
    1b4a:	f0 e0       	ldi	r31, 0x00	; 0
    1b4c:	80 81       	ld	r24, Z
    1b4e:	8b 7f       	andi	r24, 0xFB	; 251
    1b50:	80 83       	st	Z, r24
    1b52:	80 81       	ld	r24, Z
    1b54:	8b 7f       	andi	r24, 0xFB	; 251
    1b56:	80 83       	st	Z, r24
    1b58:	80 81       	ld	r24, Z
    1b5a:	8d 7f       	andi	r24, 0xFD	; 253
    1b5c:	80 83       	st	Z, r24
    1b5e:	08 95       	ret
    1b60:	e2 ec       	ldi	r30, 0xC2	; 194
    1b62:	f0 e0       	ldi	r31, 0x00	; 0
    1b64:	80 81       	ld	r24, Z
    1b66:	8b 7f       	andi	r24, 0xFB	; 251
    1b68:	80 83       	st	Z, r24
    1b6a:	80 81       	ld	r24, Z
    1b6c:	8b 7f       	andi	r24, 0xFB	; 251
    1b6e:	80 83       	st	Z, r24
    1b70:	80 81       	ld	r24, Z
    1b72:	82 60       	ori	r24, 0x02	; 2
    1b74:	80 83       	st	Z, r24
    1b76:	08 95       	ret
    1b78:	e2 ec       	ldi	r30, 0xC2	; 194
    1b7a:	f0 e0       	ldi	r31, 0x00	; 0
    1b7c:	80 81       	ld	r24, Z
    1b7e:	8b 7f       	andi	r24, 0xFB	; 251
    1b80:	80 83       	st	Z, r24
    1b82:	80 81       	ld	r24, Z
    1b84:	84 60       	ori	r24, 0x04	; 4
    1b86:	80 83       	st	Z, r24
    1b88:	80 81       	ld	r24, Z
    1b8a:	8d 7f       	andi	r24, 0xFD	; 253
    1b8c:	80 83       	st	Z, r24
    1b8e:	08 95       	ret
    1b90:	e2 ec       	ldi	r30, 0xC2	; 194
    1b92:	f0 e0       	ldi	r31, 0x00	; 0
    1b94:	80 81       	ld	r24, Z
    1b96:	8b 7f       	andi	r24, 0xFB	; 251
    1b98:	80 83       	st	Z, r24
    1b9a:	80 81       	ld	r24, Z
    1b9c:	84 60       	ori	r24, 0x04	; 4
    1b9e:	80 83       	st	Z, r24
    1ba0:	80 81       	ld	r24, Z
    1ba2:	82 60       	ori	r24, 0x02	; 2
    1ba4:	80 83       	st	Z, r24
    1ba6:	08 95       	ret
    1ba8:	e2 ec       	ldi	r30, 0xC2	; 194
    1baa:	f0 e0       	ldi	r31, 0x00	; 0
    1bac:	80 81       	ld	r24, Z
    1bae:	84 60       	ori	r24, 0x04	; 4
    1bb0:	80 83       	st	Z, r24
    1bb2:	80 81       	ld	r24, Z
    1bb4:	84 60       	ori	r24, 0x04	; 4
    1bb6:	80 83       	st	Z, r24
    1bb8:	80 81       	ld	r24, Z
    1bba:	82 60       	ori	r24, 0x02	; 2
    1bbc:	80 83       	st	Z, r24
    1bbe:	08 95       	ret
    1bc0:	e2 ec       	ldi	r30, 0xC2	; 194
    1bc2:	f0 e0       	ldi	r31, 0x00	; 0
    1bc4:	80 81       	ld	r24, Z
    1bc6:	8b 7f       	andi	r24, 0xFB	; 251
    1bc8:	80 83       	st	Z, r24
    1bca:	80 81       	ld	r24, Z
    1bcc:	84 60       	ori	r24, 0x04	; 4
    1bce:	80 83       	st	Z, r24
    1bd0:	80 81       	ld	r24, Z
    1bd2:	82 60       	ori	r24, 0x02	; 2
    1bd4:	80 83       	st	Z, r24
    1bd6:	08 95       	ret

00001bd8 <_ZN6Serial9setParityEh>:
    1bd8:	fc 01       	movw	r30, r24
    1bda:	64 83       	std	Z+4, r22	; 0x04
    1bdc:	6e 34       	cpi	r22, 0x4E	; 78
    1bde:	29 f0       	breq	.+10     	; 0x1bea <_ZN6Serial9setParityEh+0x12>
    1be0:	6f 34       	cpi	r22, 0x4F	; 79
    1be2:	a9 f0       	breq	.+42     	; 0x1c0e <_ZN6Serial9setParityEh+0x36>
    1be4:	65 34       	cpi	r22, 0x45	; 69
    1be6:	e1 f4       	brne	.+56     	; 0x1c20 <_ZN6Serial9setParityEh+0x48>
    1be8:	09 c0       	rjmp	.+18     	; 0x1bfc <_ZN6Serial9setParityEh+0x24>
    1bea:	e2 ec       	ldi	r30, 0xC2	; 194
    1bec:	f0 e0       	ldi	r31, 0x00	; 0
    1bee:	80 81       	ld	r24, Z
    1bf0:	8f 7d       	andi	r24, 0xDF	; 223
    1bf2:	80 83       	st	Z, r24
    1bf4:	80 81       	ld	r24, Z
    1bf6:	8f 7e       	andi	r24, 0xEF	; 239
    1bf8:	80 83       	st	Z, r24
    1bfa:	08 95       	ret
    1bfc:	e2 ec       	ldi	r30, 0xC2	; 194
    1bfe:	f0 e0       	ldi	r31, 0x00	; 0
    1c00:	80 81       	ld	r24, Z
    1c02:	80 62       	ori	r24, 0x20	; 32
    1c04:	80 83       	st	Z, r24
    1c06:	80 81       	ld	r24, Z
    1c08:	80 61       	ori	r24, 0x10	; 16
    1c0a:	80 83       	st	Z, r24
    1c0c:	08 95       	ret
    1c0e:	e2 ec       	ldi	r30, 0xC2	; 194
    1c10:	f0 e0       	ldi	r31, 0x00	; 0
    1c12:	80 81       	ld	r24, Z
    1c14:	80 62       	ori	r24, 0x20	; 32
    1c16:	80 83       	st	Z, r24
    1c18:	80 81       	ld	r24, Z
    1c1a:	8f 7e       	andi	r24, 0xEF	; 239
    1c1c:	80 83       	st	Z, r24
    1c1e:	08 95       	ret
    1c20:	e2 ec       	ldi	r30, 0xC2	; 194
    1c22:	f0 e0       	ldi	r31, 0x00	; 0
    1c24:	80 81       	ld	r24, Z
    1c26:	8f 7d       	andi	r24, 0xDF	; 223
    1c28:	80 83       	st	Z, r24
    1c2a:	80 81       	ld	r24, Z
    1c2c:	8f 7e       	andi	r24, 0xEF	; 239
    1c2e:	80 83       	st	Z, r24
    1c30:	08 95       	ret

00001c32 <_ZN6SerialC1Ev>:
    1c32:	cf 93       	push	r28
    1c34:	df 93       	push	r29
    1c36:	ec 01       	movw	r28, r24
    1c38:	60 e8       	ldi	r22, 0x80	; 128
    1c3a:	75 e2       	ldi	r23, 0x25	; 37
    1c3c:	0e 94 57 0d 	call	0x1aae	; 0x1aae <_ZN6Serial11setBaudRateEj>
    1c40:	61 e0       	ldi	r22, 0x01	; 1
    1c42:	ce 01       	movw	r24, r28
    1c44:	0e 94 7c 0d 	call	0x1af8	; 0x1af8 <_ZN6Serial10setStopBitEh>
    1c48:	68 e0       	ldi	r22, 0x08	; 8
    1c4a:	ce 01       	movw	r24, r28
    1c4c:	0e 94 95 0d 	call	0x1b2a	; 0x1b2a <_ZN6Serial11setByteSizeEh>
    1c50:	6e e4       	ldi	r22, 0x4E	; 78
    1c52:	ce 01       	movw	r24, r28
    1c54:	0e 94 ec 0d 	call	0x1bd8	; 0x1bd8 <_ZN6Serial9setParityEh>
    1c58:	8a b1       	in	r24, 0x0a	; 10
    1c5a:	82 60       	ori	r24, 0x02	; 2
    1c5c:	8a b9       	out	0x0a, r24	; 10
    1c5e:	e1 ec       	ldi	r30, 0xC1	; 193
    1c60:	f0 e0       	ldi	r31, 0x00	; 0
    1c62:	88 e1       	ldi	r24, 0x18	; 24
    1c64:	80 83       	st	Z, r24
    1c66:	80 81       	ld	r24, Z
    1c68:	80 68       	ori	r24, 0x80	; 128
    1c6a:	80 83       	st	Z, r24
    1c6c:	e2 ec       	ldi	r30, 0xC2	; 194
    1c6e:	f0 e0       	ldi	r31, 0x00	; 0
    1c70:	80 81       	ld	r24, Z
    1c72:	8f 77       	andi	r24, 0x7F	; 127
    1c74:	80 83       	st	Z, r24
    1c76:	80 81       	ld	r24, Z
    1c78:	8f 7b       	andi	r24, 0xBF	; 191
    1c7a:	80 83       	st	Z, r24
    1c7c:	78 94       	sei
    1c7e:	df 91       	pop	r29
    1c80:	cf 91       	pop	r28
    1c82:	08 95       	ret

00001c84 <_ZN6Serial8transmitEPc>:
    1c84:	fb 01       	movw	r30, r22
    1c86:	90 81       	ld	r25, Z
    1c88:	99 23       	and	r25, r25
    1c8a:	41 f0       	breq	.+16     	; 0x1c9c <_ZN6Serial8transmitEPc+0x18>
    1c8c:	80 91 c0 00 	lds	r24, 0x00C0	; 0x8000c0 <__TEXT_REGION_LENGTH__+0x7f80c0>
    1c90:	85 ff       	sbrs	r24, 5
    1c92:	fc cf       	rjmp	.-8      	; 0x1c8c <_ZN6Serial8transmitEPc+0x8>
    1c94:	90 93 c6 00 	sts	0x00C6, r25	; 0x8000c6 <__TEXT_REGION_LENGTH__+0x7f80c6>
    1c98:	31 96       	adiw	r30, 0x01	; 1
    1c9a:	f5 cf       	rjmp	.-22     	; 0x1c86 <_ZN6Serial8transmitEPc+0x2>
    1c9c:	08 95       	ret

00001c9e <_ZN6Serial12transmitCharEc>:
    1c9e:	80 91 c0 00 	lds	r24, 0x00C0	; 0x8000c0 <__TEXT_REGION_LENGTH__+0x7f80c0>
    1ca2:	85 ff       	sbrs	r24, 5
    1ca4:	fc cf       	rjmp	.-8      	; 0x1c9e <_ZN6Serial12transmitCharEc>
    1ca6:	60 93 c6 00 	sts	0x00C6, r22	; 0x8000c6 <__TEXT_REGION_LENGTH__+0x7f80c6>
    1caa:	08 95       	ret

00001cac <_ZN6Serial9show_menuEv>:
    1cac:	cf 93       	push	r28
    1cae:	df 93       	push	r29
    1cb0:	ec 01       	movw	r28, r24
    1cb2:	6e e6       	ldi	r22, 0x6E	; 110
    1cb4:	73 e0       	ldi	r23, 0x03	; 3
    1cb6:	0e 94 42 0e 	call	0x1c84	; 0x1c84 <_ZN6Serial8transmitEPc>
    1cba:	6d e0       	ldi	r22, 0x0D	; 13
    1cbc:	ce 01       	movw	r24, r28
    1cbe:	0e 94 4f 0e 	call	0x1c9e	; 0x1c9e <_ZN6Serial12transmitCharEc>
    1cc2:	60 e8       	ldi	r22, 0x80	; 128
    1cc4:	73 e0       	ldi	r23, 0x03	; 3
    1cc6:	ce 01       	movw	r24, r28
    1cc8:	0e 94 42 0e 	call	0x1c84	; 0x1c84 <_ZN6Serial8transmitEPc>
    1ccc:	6d e0       	ldi	r22, 0x0D	; 13
    1cce:	ce 01       	movw	r24, r28
    1cd0:	0e 94 4f 0e 	call	0x1c9e	; 0x1c9e <_ZN6Serial12transmitCharEc>
    1cd4:	6a e8       	ldi	r22, 0x8A	; 138
    1cd6:	73 e0       	ldi	r23, 0x03	; 3
    1cd8:	ce 01       	movw	r24, r28
    1cda:	0e 94 42 0e 	call	0x1c84	; 0x1c84 <_ZN6Serial8transmitEPc>
    1cde:	6d e0       	ldi	r22, 0x0D	; 13
    1ce0:	ce 01       	movw	r24, r28
    1ce2:	0e 94 4f 0e 	call	0x1c9e	; 0x1c9e <_ZN6Serial12transmitCharEc>
    1ce6:	69 e9       	ldi	r22, 0x99	; 153
    1ce8:	73 e0       	ldi	r23, 0x03	; 3
    1cea:	ce 01       	movw	r24, r28
    1cec:	0e 94 42 0e 	call	0x1c84	; 0x1c84 <_ZN6Serial8transmitEPc>
    1cf0:	6d e0       	ldi	r22, 0x0D	; 13
    1cf2:	ce 01       	movw	r24, r28
    1cf4:	0e 94 4f 0e 	call	0x1c9e	; 0x1c9e <_ZN6Serial12transmitCharEc>
    1cf8:	6d e0       	ldi	r22, 0x0D	; 13
    1cfa:	ce 01       	movw	r24, r28
    1cfc:	0e 94 4f 0e 	call	0x1c9e	; 0x1c9e <_ZN6Serial12transmitCharEc>
    1d00:	df 91       	pop	r29
    1d02:	cf 91       	pop	r28
    1d04:	08 95       	ret

00001d06 <_ZN5ValveC1Ev>:
    1d06:	08 95       	ret

00001d08 <_ZN5ValveD1Ev>:
    1d08:	08 95       	ret

00001d0a <_ZN5Valve12attachToPortEh>:
    1d0a:	fc 01       	movw	r30, r24
    1d0c:	60 83       	st	Z, r22
    1d0e:	24 b1       	in	r18, 0x04	; 4
    1d10:	81 e0       	ldi	r24, 0x01	; 1
    1d12:	90 e0       	ldi	r25, 0x00	; 0
    1d14:	02 c0       	rjmp	.+4      	; 0x1d1a <_ZN5Valve12attachToPortEh+0x10>
    1d16:	88 0f       	add	r24, r24
    1d18:	99 1f       	adc	r25, r25
    1d1a:	6a 95       	dec	r22
    1d1c:	e2 f7       	brpl	.-8      	; 0x1d16 <_ZN5Valve12attachToPortEh+0xc>
    1d1e:	82 2b       	or	r24, r18
    1d20:	84 b9       	out	0x04, r24	; 4
    1d22:	08 95       	ret

00001d24 <_ZN5Valve6turnOnEv>:
    1d24:	45 b1       	in	r20, 0x05	; 5
    1d26:	21 e0       	ldi	r18, 0x01	; 1
    1d28:	30 e0       	ldi	r19, 0x00	; 0
    1d2a:	fc 01       	movw	r30, r24
    1d2c:	00 80       	ld	r0, Z
    1d2e:	02 c0       	rjmp	.+4      	; 0x1d34 <_ZN5Valve6turnOnEv+0x10>
    1d30:	22 0f       	add	r18, r18
    1d32:	33 1f       	adc	r19, r19
    1d34:	0a 94       	dec	r0
    1d36:	e2 f7       	brpl	.-8      	; 0x1d30 <_ZN5Valve6turnOnEv+0xc>
    1d38:	24 2b       	or	r18, r20
    1d3a:	25 b9       	out	0x05, r18	; 5
    1d3c:	21 e0       	ldi	r18, 0x01	; 1
    1d3e:	21 83       	std	Z+1, r18	; 0x01
    1d40:	08 95       	ret

00001d42 <_ZN5Valve7turnOffEv>:
    1d42:	fc 01       	movw	r30, r24
    1d44:	95 b1       	in	r25, 0x05	; 5
    1d46:	21 e0       	ldi	r18, 0x01	; 1
    1d48:	30 e0       	ldi	r19, 0x00	; 0
    1d4a:	00 80       	ld	r0, Z
    1d4c:	02 c0       	rjmp	.+4      	; 0x1d52 <_ZN5Valve7turnOffEv+0x10>
    1d4e:	22 0f       	add	r18, r18
    1d50:	33 1f       	adc	r19, r19
    1d52:	0a 94       	dec	r0
    1d54:	e2 f7       	brpl	.-8      	; 0x1d4e <_ZN5Valve7turnOffEv+0xc>
    1d56:	20 95       	com	r18
    1d58:	29 23       	and	r18, r25
    1d5a:	25 b9       	out	0x05, r18	; 5
    1d5c:	11 82       	std	Z+1, r1	; 0x01
    1d5e:	08 95       	ret

00001d60 <__subsf3>:
    1d60:	50 58       	subi	r21, 0x80	; 128

00001d62 <__addsf3>:
    1d62:	bb 27       	eor	r27, r27
    1d64:	aa 27       	eor	r26, r26
    1d66:	0e 94 c8 0e 	call	0x1d90	; 0x1d90 <__addsf3x>
    1d6a:	0c 94 a7 0f 	jmp	0x1f4e	; 0x1f4e <__fp_round>
    1d6e:	0e 94 99 0f 	call	0x1f32	; 0x1f32 <__fp_pscA>
    1d72:	38 f0       	brcs	.+14     	; 0x1d82 <__addsf3+0x20>
    1d74:	0e 94 a0 0f 	call	0x1f40	; 0x1f40 <__fp_pscB>
    1d78:	20 f0       	brcs	.+8      	; 0x1d82 <__addsf3+0x20>
    1d7a:	39 f4       	brne	.+14     	; 0x1d8a <__addsf3+0x28>
    1d7c:	9f 3f       	cpi	r25, 0xFF	; 255
    1d7e:	19 f4       	brne	.+6      	; 0x1d86 <__addsf3+0x24>
    1d80:	26 f4       	brtc	.+8      	; 0x1d8a <__addsf3+0x28>
    1d82:	0c 94 96 0f 	jmp	0x1f2c	; 0x1f2c <__fp_nan>
    1d86:	0e f4       	brtc	.+2      	; 0x1d8a <__addsf3+0x28>
    1d88:	e0 95       	com	r30
    1d8a:	e7 fb       	bst	r30, 7
    1d8c:	0c 94 90 0f 	jmp	0x1f20	; 0x1f20 <__fp_inf>

00001d90 <__addsf3x>:
    1d90:	e9 2f       	mov	r30, r25
    1d92:	0e 94 b8 0f 	call	0x1f70	; 0x1f70 <__fp_split3>
    1d96:	58 f3       	brcs	.-42     	; 0x1d6e <__addsf3+0xc>
    1d98:	ba 17       	cp	r27, r26
    1d9a:	62 07       	cpc	r22, r18
    1d9c:	73 07       	cpc	r23, r19
    1d9e:	84 07       	cpc	r24, r20
    1da0:	95 07       	cpc	r25, r21
    1da2:	20 f0       	brcs	.+8      	; 0x1dac <__addsf3x+0x1c>
    1da4:	79 f4       	brne	.+30     	; 0x1dc4 <__addsf3x+0x34>
    1da6:	a6 f5       	brtc	.+104    	; 0x1e10 <__addsf3x+0x80>
    1da8:	0c 94 da 0f 	jmp	0x1fb4	; 0x1fb4 <__fp_zero>
    1dac:	0e f4       	brtc	.+2      	; 0x1db0 <__addsf3x+0x20>
    1dae:	e0 95       	com	r30
    1db0:	0b 2e       	mov	r0, r27
    1db2:	ba 2f       	mov	r27, r26
    1db4:	a0 2d       	mov	r26, r0
    1db6:	0b 01       	movw	r0, r22
    1db8:	b9 01       	movw	r22, r18
    1dba:	90 01       	movw	r18, r0
    1dbc:	0c 01       	movw	r0, r24
    1dbe:	ca 01       	movw	r24, r20
    1dc0:	a0 01       	movw	r20, r0
    1dc2:	11 24       	eor	r1, r1
    1dc4:	ff 27       	eor	r31, r31
    1dc6:	59 1b       	sub	r21, r25
    1dc8:	99 f0       	breq	.+38     	; 0x1df0 <__addsf3x+0x60>
    1dca:	59 3f       	cpi	r21, 0xF9	; 249
    1dcc:	50 f4       	brcc	.+20     	; 0x1de2 <__addsf3x+0x52>
    1dce:	50 3e       	cpi	r21, 0xE0	; 224
    1dd0:	68 f1       	brcs	.+90     	; 0x1e2c <__addsf3x+0x9c>
    1dd2:	1a 16       	cp	r1, r26
    1dd4:	f0 40       	sbci	r31, 0x00	; 0
    1dd6:	a2 2f       	mov	r26, r18
    1dd8:	23 2f       	mov	r18, r19
    1dda:	34 2f       	mov	r19, r20
    1ddc:	44 27       	eor	r20, r20
    1dde:	58 5f       	subi	r21, 0xF8	; 248
    1de0:	f3 cf       	rjmp	.-26     	; 0x1dc8 <__addsf3x+0x38>
    1de2:	46 95       	lsr	r20
    1de4:	37 95       	ror	r19
    1de6:	27 95       	ror	r18
    1de8:	a7 95       	ror	r26
    1dea:	f0 40       	sbci	r31, 0x00	; 0
    1dec:	53 95       	inc	r21
    1dee:	c9 f7       	brne	.-14     	; 0x1de2 <__addsf3x+0x52>
    1df0:	7e f4       	brtc	.+30     	; 0x1e10 <__addsf3x+0x80>
    1df2:	1f 16       	cp	r1, r31
    1df4:	ba 0b       	sbc	r27, r26
    1df6:	62 0b       	sbc	r22, r18
    1df8:	73 0b       	sbc	r23, r19
    1dfa:	84 0b       	sbc	r24, r20
    1dfc:	ba f0       	brmi	.+46     	; 0x1e2c <__addsf3x+0x9c>
    1dfe:	91 50       	subi	r25, 0x01	; 1
    1e00:	a1 f0       	breq	.+40     	; 0x1e2a <__addsf3x+0x9a>
    1e02:	ff 0f       	add	r31, r31
    1e04:	bb 1f       	adc	r27, r27
    1e06:	66 1f       	adc	r22, r22
    1e08:	77 1f       	adc	r23, r23
    1e0a:	88 1f       	adc	r24, r24
    1e0c:	c2 f7       	brpl	.-16     	; 0x1dfe <__addsf3x+0x6e>
    1e0e:	0e c0       	rjmp	.+28     	; 0x1e2c <__addsf3x+0x9c>
    1e10:	ba 0f       	add	r27, r26
    1e12:	62 1f       	adc	r22, r18
    1e14:	73 1f       	adc	r23, r19
    1e16:	84 1f       	adc	r24, r20
    1e18:	48 f4       	brcc	.+18     	; 0x1e2c <__addsf3x+0x9c>
    1e1a:	87 95       	ror	r24
    1e1c:	77 95       	ror	r23
    1e1e:	67 95       	ror	r22
    1e20:	b7 95       	ror	r27
    1e22:	f7 95       	ror	r31
    1e24:	9e 3f       	cpi	r25, 0xFE	; 254
    1e26:	08 f0       	brcs	.+2      	; 0x1e2a <__addsf3x+0x9a>
    1e28:	b0 cf       	rjmp	.-160    	; 0x1d8a <__addsf3+0x28>
    1e2a:	93 95       	inc	r25
    1e2c:	88 0f       	add	r24, r24
    1e2e:	08 f0       	brcs	.+2      	; 0x1e32 <__addsf3x+0xa2>
    1e30:	99 27       	eor	r25, r25
    1e32:	ee 0f       	add	r30, r30
    1e34:	97 95       	ror	r25
    1e36:	87 95       	ror	r24
    1e38:	08 95       	ret

00001e3a <__fixsfsi>:
    1e3a:	0e 94 24 0f 	call	0x1e48	; 0x1e48 <__fixunssfsi>
    1e3e:	68 94       	set
    1e40:	b1 11       	cpse	r27, r1
    1e42:	0c 94 db 0f 	jmp	0x1fb6	; 0x1fb6 <__fp_szero>
    1e46:	08 95       	ret

00001e48 <__fixunssfsi>:
    1e48:	0e 94 c0 0f 	call	0x1f80	; 0x1f80 <__fp_splitA>
    1e4c:	88 f0       	brcs	.+34     	; 0x1e70 <__fixunssfsi+0x28>
    1e4e:	9f 57       	subi	r25, 0x7F	; 127
    1e50:	98 f0       	brcs	.+38     	; 0x1e78 <__fixunssfsi+0x30>
    1e52:	b9 2f       	mov	r27, r25
    1e54:	99 27       	eor	r25, r25
    1e56:	b7 51       	subi	r27, 0x17	; 23
    1e58:	b0 f0       	brcs	.+44     	; 0x1e86 <__fixunssfsi+0x3e>
    1e5a:	e1 f0       	breq	.+56     	; 0x1e94 <__fixunssfsi+0x4c>
    1e5c:	66 0f       	add	r22, r22
    1e5e:	77 1f       	adc	r23, r23
    1e60:	88 1f       	adc	r24, r24
    1e62:	99 1f       	adc	r25, r25
    1e64:	1a f0       	brmi	.+6      	; 0x1e6c <__fixunssfsi+0x24>
    1e66:	ba 95       	dec	r27
    1e68:	c9 f7       	brne	.-14     	; 0x1e5c <__fixunssfsi+0x14>
    1e6a:	14 c0       	rjmp	.+40     	; 0x1e94 <__fixunssfsi+0x4c>
    1e6c:	b1 30       	cpi	r27, 0x01	; 1
    1e6e:	91 f0       	breq	.+36     	; 0x1e94 <__fixunssfsi+0x4c>
    1e70:	0e 94 da 0f 	call	0x1fb4	; 0x1fb4 <__fp_zero>
    1e74:	b1 e0       	ldi	r27, 0x01	; 1
    1e76:	08 95       	ret
    1e78:	0c 94 da 0f 	jmp	0x1fb4	; 0x1fb4 <__fp_zero>
    1e7c:	67 2f       	mov	r22, r23
    1e7e:	78 2f       	mov	r23, r24
    1e80:	88 27       	eor	r24, r24
    1e82:	b8 5f       	subi	r27, 0xF8	; 248
    1e84:	39 f0       	breq	.+14     	; 0x1e94 <__fixunssfsi+0x4c>
    1e86:	b9 3f       	cpi	r27, 0xF9	; 249
    1e88:	cc f3       	brlt	.-14     	; 0x1e7c <__fixunssfsi+0x34>
    1e8a:	86 95       	lsr	r24
    1e8c:	77 95       	ror	r23
    1e8e:	67 95       	ror	r22
    1e90:	b3 95       	inc	r27
    1e92:	d9 f7       	brne	.-10     	; 0x1e8a <__fixunssfsi+0x42>
    1e94:	3e f4       	brtc	.+14     	; 0x1ea4 <__fixunssfsi+0x5c>
    1e96:	90 95       	com	r25
    1e98:	80 95       	com	r24
    1e9a:	70 95       	com	r23
    1e9c:	61 95       	neg	r22
    1e9e:	7f 4f       	sbci	r23, 0xFF	; 255
    1ea0:	8f 4f       	sbci	r24, 0xFF	; 255
    1ea2:	9f 4f       	sbci	r25, 0xFF	; 255
    1ea4:	08 95       	ret

00001ea6 <__floatunsisf>:
    1ea6:	e8 94       	clt
    1ea8:	09 c0       	rjmp	.+18     	; 0x1ebc <__floatsisf+0x12>

00001eaa <__floatsisf>:
    1eaa:	97 fb       	bst	r25, 7
    1eac:	3e f4       	brtc	.+14     	; 0x1ebc <__floatsisf+0x12>
    1eae:	90 95       	com	r25
    1eb0:	80 95       	com	r24
    1eb2:	70 95       	com	r23
    1eb4:	61 95       	neg	r22
    1eb6:	7f 4f       	sbci	r23, 0xFF	; 255
    1eb8:	8f 4f       	sbci	r24, 0xFF	; 255
    1eba:	9f 4f       	sbci	r25, 0xFF	; 255
    1ebc:	99 23       	and	r25, r25
    1ebe:	a9 f0       	breq	.+42     	; 0x1eea <__floatsisf+0x40>
    1ec0:	f9 2f       	mov	r31, r25
    1ec2:	96 e9       	ldi	r25, 0x96	; 150
    1ec4:	bb 27       	eor	r27, r27
    1ec6:	93 95       	inc	r25
    1ec8:	f6 95       	lsr	r31
    1eca:	87 95       	ror	r24
    1ecc:	77 95       	ror	r23
    1ece:	67 95       	ror	r22
    1ed0:	b7 95       	ror	r27
    1ed2:	f1 11       	cpse	r31, r1
    1ed4:	f8 cf       	rjmp	.-16     	; 0x1ec6 <__floatsisf+0x1c>
    1ed6:	fa f4       	brpl	.+62     	; 0x1f16 <__floatsisf+0x6c>
    1ed8:	bb 0f       	add	r27, r27
    1eda:	11 f4       	brne	.+4      	; 0x1ee0 <__floatsisf+0x36>
    1edc:	60 ff       	sbrs	r22, 0
    1ede:	1b c0       	rjmp	.+54     	; 0x1f16 <__floatsisf+0x6c>
    1ee0:	6f 5f       	subi	r22, 0xFF	; 255
    1ee2:	7f 4f       	sbci	r23, 0xFF	; 255
    1ee4:	8f 4f       	sbci	r24, 0xFF	; 255
    1ee6:	9f 4f       	sbci	r25, 0xFF	; 255
    1ee8:	16 c0       	rjmp	.+44     	; 0x1f16 <__floatsisf+0x6c>
    1eea:	88 23       	and	r24, r24
    1eec:	11 f0       	breq	.+4      	; 0x1ef2 <__floatsisf+0x48>
    1eee:	96 e9       	ldi	r25, 0x96	; 150
    1ef0:	11 c0       	rjmp	.+34     	; 0x1f14 <__floatsisf+0x6a>
    1ef2:	77 23       	and	r23, r23
    1ef4:	21 f0       	breq	.+8      	; 0x1efe <__floatsisf+0x54>
    1ef6:	9e e8       	ldi	r25, 0x8E	; 142
    1ef8:	87 2f       	mov	r24, r23
    1efa:	76 2f       	mov	r23, r22
    1efc:	05 c0       	rjmp	.+10     	; 0x1f08 <__floatsisf+0x5e>
    1efe:	66 23       	and	r22, r22
    1f00:	71 f0       	breq	.+28     	; 0x1f1e <__floatsisf+0x74>
    1f02:	96 e8       	ldi	r25, 0x86	; 134
    1f04:	86 2f       	mov	r24, r22
    1f06:	70 e0       	ldi	r23, 0x00	; 0
    1f08:	60 e0       	ldi	r22, 0x00	; 0
    1f0a:	2a f0       	brmi	.+10     	; 0x1f16 <__floatsisf+0x6c>
    1f0c:	9a 95       	dec	r25
    1f0e:	66 0f       	add	r22, r22
    1f10:	77 1f       	adc	r23, r23
    1f12:	88 1f       	adc	r24, r24
    1f14:	da f7       	brpl	.-10     	; 0x1f0c <__floatsisf+0x62>
    1f16:	88 0f       	add	r24, r24
    1f18:	96 95       	lsr	r25
    1f1a:	87 95       	ror	r24
    1f1c:	97 f9       	bld	r25, 7
    1f1e:	08 95       	ret

00001f20 <__fp_inf>:
    1f20:	97 f9       	bld	r25, 7
    1f22:	9f 67       	ori	r25, 0x7F	; 127
    1f24:	80 e8       	ldi	r24, 0x80	; 128
    1f26:	70 e0       	ldi	r23, 0x00	; 0
    1f28:	60 e0       	ldi	r22, 0x00	; 0
    1f2a:	08 95       	ret

00001f2c <__fp_nan>:
    1f2c:	9f ef       	ldi	r25, 0xFF	; 255
    1f2e:	80 ec       	ldi	r24, 0xC0	; 192
    1f30:	08 95       	ret

00001f32 <__fp_pscA>:
    1f32:	00 24       	eor	r0, r0
    1f34:	0a 94       	dec	r0
    1f36:	16 16       	cp	r1, r22
    1f38:	17 06       	cpc	r1, r23
    1f3a:	18 06       	cpc	r1, r24
    1f3c:	09 06       	cpc	r0, r25
    1f3e:	08 95       	ret

00001f40 <__fp_pscB>:
    1f40:	00 24       	eor	r0, r0
    1f42:	0a 94       	dec	r0
    1f44:	12 16       	cp	r1, r18
    1f46:	13 06       	cpc	r1, r19
    1f48:	14 06       	cpc	r1, r20
    1f4a:	05 06       	cpc	r0, r21
    1f4c:	08 95       	ret

00001f4e <__fp_round>:
    1f4e:	09 2e       	mov	r0, r25
    1f50:	03 94       	inc	r0
    1f52:	00 0c       	add	r0, r0
    1f54:	11 f4       	brne	.+4      	; 0x1f5a <__fp_round+0xc>
    1f56:	88 23       	and	r24, r24
    1f58:	52 f0       	brmi	.+20     	; 0x1f6e <__fp_round+0x20>
    1f5a:	bb 0f       	add	r27, r27
    1f5c:	40 f4       	brcc	.+16     	; 0x1f6e <__fp_round+0x20>
    1f5e:	bf 2b       	or	r27, r31
    1f60:	11 f4       	brne	.+4      	; 0x1f66 <__fp_round+0x18>
    1f62:	60 ff       	sbrs	r22, 0
    1f64:	04 c0       	rjmp	.+8      	; 0x1f6e <__fp_round+0x20>
    1f66:	6f 5f       	subi	r22, 0xFF	; 255
    1f68:	7f 4f       	sbci	r23, 0xFF	; 255
    1f6a:	8f 4f       	sbci	r24, 0xFF	; 255
    1f6c:	9f 4f       	sbci	r25, 0xFF	; 255
    1f6e:	08 95       	ret

00001f70 <__fp_split3>:
    1f70:	57 fd       	sbrc	r21, 7
    1f72:	90 58       	subi	r25, 0x80	; 128
    1f74:	44 0f       	add	r20, r20
    1f76:	55 1f       	adc	r21, r21
    1f78:	59 f0       	breq	.+22     	; 0x1f90 <__fp_splitA+0x10>
    1f7a:	5f 3f       	cpi	r21, 0xFF	; 255
    1f7c:	71 f0       	breq	.+28     	; 0x1f9a <__fp_splitA+0x1a>
    1f7e:	47 95       	ror	r20

00001f80 <__fp_splitA>:
    1f80:	88 0f       	add	r24, r24
    1f82:	97 fb       	bst	r25, 7
    1f84:	99 1f       	adc	r25, r25
    1f86:	61 f0       	breq	.+24     	; 0x1fa0 <__fp_splitA+0x20>
    1f88:	9f 3f       	cpi	r25, 0xFF	; 255
    1f8a:	79 f0       	breq	.+30     	; 0x1faa <__fp_splitA+0x2a>
    1f8c:	87 95       	ror	r24
    1f8e:	08 95       	ret
    1f90:	12 16       	cp	r1, r18
    1f92:	13 06       	cpc	r1, r19
    1f94:	14 06       	cpc	r1, r20
    1f96:	55 1f       	adc	r21, r21
    1f98:	f2 cf       	rjmp	.-28     	; 0x1f7e <__fp_split3+0xe>
    1f9a:	46 95       	lsr	r20
    1f9c:	f1 df       	rcall	.-30     	; 0x1f80 <__fp_splitA>
    1f9e:	08 c0       	rjmp	.+16     	; 0x1fb0 <__fp_splitA+0x30>
    1fa0:	16 16       	cp	r1, r22
    1fa2:	17 06       	cpc	r1, r23
    1fa4:	18 06       	cpc	r1, r24
    1fa6:	99 1f       	adc	r25, r25
    1fa8:	f1 cf       	rjmp	.-30     	; 0x1f8c <__fp_splitA+0xc>
    1faa:	86 95       	lsr	r24
    1fac:	71 05       	cpc	r23, r1
    1fae:	61 05       	cpc	r22, r1
    1fb0:	08 94       	sec
    1fb2:	08 95       	ret

00001fb4 <__fp_zero>:
    1fb4:	e8 94       	clt

00001fb6 <__fp_szero>:
    1fb6:	bb 27       	eor	r27, r27
    1fb8:	66 27       	eor	r22, r22
    1fba:	77 27       	eor	r23, r23
    1fbc:	cb 01       	movw	r24, r22
    1fbe:	97 f9       	bld	r25, 7
    1fc0:	08 95       	ret

00001fc2 <__gesf2>:
    1fc2:	0e 94 5e 10 	call	0x20bc	; 0x20bc <__fp_cmp>
    1fc6:	08 f4       	brcc	.+2      	; 0x1fca <__gesf2+0x8>
    1fc8:	8f ef       	ldi	r24, 0xFF	; 255
    1fca:	08 95       	ret

00001fcc <__mulsf3>:
    1fcc:	0e 94 f9 0f 	call	0x1ff2	; 0x1ff2 <__mulsf3x>
    1fd0:	0c 94 a7 0f 	jmp	0x1f4e	; 0x1f4e <__fp_round>
    1fd4:	0e 94 99 0f 	call	0x1f32	; 0x1f32 <__fp_pscA>
    1fd8:	38 f0       	brcs	.+14     	; 0x1fe8 <__mulsf3+0x1c>
    1fda:	0e 94 a0 0f 	call	0x1f40	; 0x1f40 <__fp_pscB>
    1fde:	20 f0       	brcs	.+8      	; 0x1fe8 <__mulsf3+0x1c>
    1fe0:	95 23       	and	r25, r21
    1fe2:	11 f0       	breq	.+4      	; 0x1fe8 <__mulsf3+0x1c>
    1fe4:	0c 94 90 0f 	jmp	0x1f20	; 0x1f20 <__fp_inf>
    1fe8:	0c 94 96 0f 	jmp	0x1f2c	; 0x1f2c <__fp_nan>
    1fec:	11 24       	eor	r1, r1
    1fee:	0c 94 db 0f 	jmp	0x1fb6	; 0x1fb6 <__fp_szero>

00001ff2 <__mulsf3x>:
    1ff2:	0e 94 b8 0f 	call	0x1f70	; 0x1f70 <__fp_split3>
    1ff6:	70 f3       	brcs	.-36     	; 0x1fd4 <__mulsf3+0x8>

00001ff8 <__mulsf3_pse>:
    1ff8:	95 9f       	mul	r25, r21
    1ffa:	c1 f3       	breq	.-16     	; 0x1fec <__mulsf3+0x20>
    1ffc:	95 0f       	add	r25, r21
    1ffe:	50 e0       	ldi	r21, 0x00	; 0
    2000:	55 1f       	adc	r21, r21
    2002:	62 9f       	mul	r22, r18
    2004:	f0 01       	movw	r30, r0
    2006:	72 9f       	mul	r23, r18
    2008:	bb 27       	eor	r27, r27
    200a:	f0 0d       	add	r31, r0
    200c:	b1 1d       	adc	r27, r1
    200e:	63 9f       	mul	r22, r19
    2010:	aa 27       	eor	r26, r26
    2012:	f0 0d       	add	r31, r0
    2014:	b1 1d       	adc	r27, r1
    2016:	aa 1f       	adc	r26, r26
    2018:	64 9f       	mul	r22, r20
    201a:	66 27       	eor	r22, r22
    201c:	b0 0d       	add	r27, r0
    201e:	a1 1d       	adc	r26, r1
    2020:	66 1f       	adc	r22, r22
    2022:	82 9f       	mul	r24, r18
    2024:	22 27       	eor	r18, r18
    2026:	b0 0d       	add	r27, r0
    2028:	a1 1d       	adc	r26, r1
    202a:	62 1f       	adc	r22, r18
    202c:	73 9f       	mul	r23, r19
    202e:	b0 0d       	add	r27, r0
    2030:	a1 1d       	adc	r26, r1
    2032:	62 1f       	adc	r22, r18
    2034:	83 9f       	mul	r24, r19
    2036:	a0 0d       	add	r26, r0
    2038:	61 1d       	adc	r22, r1
    203a:	22 1f       	adc	r18, r18
    203c:	74 9f       	mul	r23, r20
    203e:	33 27       	eor	r19, r19
    2040:	a0 0d       	add	r26, r0
    2042:	61 1d       	adc	r22, r1
    2044:	23 1f       	adc	r18, r19
    2046:	84 9f       	mul	r24, r20
    2048:	60 0d       	add	r22, r0
    204a:	21 1d       	adc	r18, r1
    204c:	82 2f       	mov	r24, r18
    204e:	76 2f       	mov	r23, r22
    2050:	6a 2f       	mov	r22, r26
    2052:	11 24       	eor	r1, r1
    2054:	9f 57       	subi	r25, 0x7F	; 127
    2056:	50 40       	sbci	r21, 0x00	; 0
    2058:	9a f0       	brmi	.+38     	; 0x2080 <__mulsf3_pse+0x88>
    205a:	f1 f0       	breq	.+60     	; 0x2098 <__mulsf3_pse+0xa0>
    205c:	88 23       	and	r24, r24
    205e:	4a f0       	brmi	.+18     	; 0x2072 <__mulsf3_pse+0x7a>
    2060:	ee 0f       	add	r30, r30
    2062:	ff 1f       	adc	r31, r31
    2064:	bb 1f       	adc	r27, r27
    2066:	66 1f       	adc	r22, r22
    2068:	77 1f       	adc	r23, r23
    206a:	88 1f       	adc	r24, r24
    206c:	91 50       	subi	r25, 0x01	; 1
    206e:	50 40       	sbci	r21, 0x00	; 0
    2070:	a9 f7       	brne	.-22     	; 0x205c <__mulsf3_pse+0x64>
    2072:	9e 3f       	cpi	r25, 0xFE	; 254
    2074:	51 05       	cpc	r21, r1
    2076:	80 f0       	brcs	.+32     	; 0x2098 <__mulsf3_pse+0xa0>
    2078:	0c 94 90 0f 	jmp	0x1f20	; 0x1f20 <__fp_inf>
    207c:	0c 94 db 0f 	jmp	0x1fb6	; 0x1fb6 <__fp_szero>
    2080:	5f 3f       	cpi	r21, 0xFF	; 255
    2082:	e4 f3       	brlt	.-8      	; 0x207c <__mulsf3_pse+0x84>
    2084:	98 3e       	cpi	r25, 0xE8	; 232
    2086:	d4 f3       	brlt	.-12     	; 0x207c <__mulsf3_pse+0x84>
    2088:	86 95       	lsr	r24
    208a:	77 95       	ror	r23
    208c:	67 95       	ror	r22
    208e:	b7 95       	ror	r27
    2090:	f7 95       	ror	r31
    2092:	e7 95       	ror	r30
    2094:	9f 5f       	subi	r25, 0xFF	; 255
    2096:	c1 f7       	brne	.-16     	; 0x2088 <__mulsf3_pse+0x90>
    2098:	fe 2b       	or	r31, r30
    209a:	88 0f       	add	r24, r24
    209c:	91 1d       	adc	r25, r1
    209e:	96 95       	lsr	r25
    20a0:	87 95       	ror	r24
    20a2:	97 f9       	bld	r25, 7
    20a4:	08 95       	ret

000020a6 <trunc>:
    20a6:	0e 94 ab 10 	call	0x2156	; 0x2156 <__fp_trunc>
    20aa:	30 f0       	brcs	.+12     	; 0x20b8 <trunc+0x12>
    20ac:	9f 37       	cpi	r25, 0x7F	; 127
    20ae:	10 f4       	brcc	.+4      	; 0x20b4 <trunc+0xe>
    20b0:	0c 94 db 0f 	jmp	0x1fb6	; 0x1fb6 <__fp_szero>
    20b4:	0c 94 82 10 	jmp	0x2104	; 0x2104 <__fp_mintl>
    20b8:	0c 94 9d 10 	jmp	0x213a	; 0x213a <__fp_mpack>

000020bc <__fp_cmp>:
    20bc:	99 0f       	add	r25, r25
    20be:	00 08       	sbc	r0, r0
    20c0:	55 0f       	add	r21, r21
    20c2:	aa 0b       	sbc	r26, r26
    20c4:	e0 e8       	ldi	r30, 0x80	; 128
    20c6:	fe ef       	ldi	r31, 0xFE	; 254
    20c8:	16 16       	cp	r1, r22
    20ca:	17 06       	cpc	r1, r23
    20cc:	e8 07       	cpc	r30, r24
    20ce:	f9 07       	cpc	r31, r25
    20d0:	c0 f0       	brcs	.+48     	; 0x2102 <__fp_cmp+0x46>
    20d2:	12 16       	cp	r1, r18
    20d4:	13 06       	cpc	r1, r19
    20d6:	e4 07       	cpc	r30, r20
    20d8:	f5 07       	cpc	r31, r21
    20da:	98 f0       	brcs	.+38     	; 0x2102 <__fp_cmp+0x46>
    20dc:	62 1b       	sub	r22, r18
    20de:	73 0b       	sbc	r23, r19
    20e0:	84 0b       	sbc	r24, r20
    20e2:	95 0b       	sbc	r25, r21
    20e4:	39 f4       	brne	.+14     	; 0x20f4 <__fp_cmp+0x38>
    20e6:	0a 26       	eor	r0, r26
    20e8:	61 f0       	breq	.+24     	; 0x2102 <__fp_cmp+0x46>
    20ea:	23 2b       	or	r18, r19
    20ec:	24 2b       	or	r18, r20
    20ee:	25 2b       	or	r18, r21
    20f0:	21 f4       	brne	.+8      	; 0x20fa <__fp_cmp+0x3e>
    20f2:	08 95       	ret
    20f4:	0a 26       	eor	r0, r26
    20f6:	09 f4       	brne	.+2      	; 0x20fa <__fp_cmp+0x3e>
    20f8:	a1 40       	sbci	r26, 0x01	; 1
    20fa:	a6 95       	lsr	r26
    20fc:	8f ef       	ldi	r24, 0xFF	; 255
    20fe:	81 1d       	adc	r24, r1
    2100:	81 1d       	adc	r24, r1
    2102:	08 95       	ret

00002104 <__fp_mintl>:
    2104:	88 23       	and	r24, r24
    2106:	71 f4       	brne	.+28     	; 0x2124 <__fp_mintl+0x20>
    2108:	77 23       	and	r23, r23
    210a:	21 f0       	breq	.+8      	; 0x2114 <__fp_mintl+0x10>
    210c:	98 50       	subi	r25, 0x08	; 8
    210e:	87 2b       	or	r24, r23
    2110:	76 2f       	mov	r23, r22
    2112:	07 c0       	rjmp	.+14     	; 0x2122 <__fp_mintl+0x1e>
    2114:	66 23       	and	r22, r22
    2116:	11 f4       	brne	.+4      	; 0x211c <__fp_mintl+0x18>
    2118:	99 27       	eor	r25, r25
    211a:	0d c0       	rjmp	.+26     	; 0x2136 <__fp_mintl+0x32>
    211c:	90 51       	subi	r25, 0x10	; 16
    211e:	86 2b       	or	r24, r22
    2120:	70 e0       	ldi	r23, 0x00	; 0
    2122:	60 e0       	ldi	r22, 0x00	; 0
    2124:	2a f0       	brmi	.+10     	; 0x2130 <__fp_mintl+0x2c>
    2126:	9a 95       	dec	r25
    2128:	66 0f       	add	r22, r22
    212a:	77 1f       	adc	r23, r23
    212c:	88 1f       	adc	r24, r24
    212e:	da f7       	brpl	.-10     	; 0x2126 <__fp_mintl+0x22>
    2130:	88 0f       	add	r24, r24
    2132:	96 95       	lsr	r25
    2134:	87 95       	ror	r24
    2136:	97 f9       	bld	r25, 7
    2138:	08 95       	ret

0000213a <__fp_mpack>:
    213a:	9f 3f       	cpi	r25, 0xFF	; 255
    213c:	31 f0       	breq	.+12     	; 0x214a <__fp_mpack_finite+0xc>

0000213e <__fp_mpack_finite>:
    213e:	91 50       	subi	r25, 0x01	; 1
    2140:	20 f4       	brcc	.+8      	; 0x214a <__fp_mpack_finite+0xc>
    2142:	87 95       	ror	r24
    2144:	77 95       	ror	r23
    2146:	67 95       	ror	r22
    2148:	b7 95       	ror	r27
    214a:	88 0f       	add	r24, r24
    214c:	91 1d       	adc	r25, r1
    214e:	96 95       	lsr	r25
    2150:	87 95       	ror	r24
    2152:	97 f9       	bld	r25, 7
    2154:	08 95       	ret

00002156 <__fp_trunc>:
    2156:	0e 94 c0 0f 	call	0x1f80	; 0x1f80 <__fp_splitA>
    215a:	a0 f0       	brcs	.+40     	; 0x2184 <__fp_trunc+0x2e>
    215c:	be e7       	ldi	r27, 0x7E	; 126
    215e:	b9 17       	cp	r27, r25
    2160:	88 f4       	brcc	.+34     	; 0x2184 <__fp_trunc+0x2e>
    2162:	bb 27       	eor	r27, r27
    2164:	9f 38       	cpi	r25, 0x8F	; 143
    2166:	60 f4       	brcc	.+24     	; 0x2180 <__fp_trunc+0x2a>
    2168:	16 16       	cp	r1, r22
    216a:	b1 1d       	adc	r27, r1
    216c:	67 2f       	mov	r22, r23
    216e:	78 2f       	mov	r23, r24
    2170:	88 27       	eor	r24, r24
    2172:	98 5f       	subi	r25, 0xF8	; 248
    2174:	f7 cf       	rjmp	.-18     	; 0x2164 <__fp_trunc+0xe>
    2176:	86 95       	lsr	r24
    2178:	77 95       	ror	r23
    217a:	67 95       	ror	r22
    217c:	b1 1d       	adc	r27, r1
    217e:	93 95       	inc	r25
    2180:	96 39       	cpi	r25, 0x96	; 150
    2182:	c8 f3       	brcs	.-14     	; 0x2176 <__fp_trunc+0x20>
    2184:	08 95       	ret

00002186 <__udivmodsi4>:
    2186:	a1 e2       	ldi	r26, 0x21	; 33
    2188:	1a 2e       	mov	r1, r26
    218a:	aa 1b       	sub	r26, r26
    218c:	bb 1b       	sub	r27, r27
    218e:	fd 01       	movw	r30, r26
    2190:	0d c0       	rjmp	.+26     	; 0x21ac <__udivmodsi4_ep>

00002192 <__udivmodsi4_loop>:
    2192:	aa 1f       	adc	r26, r26
    2194:	bb 1f       	adc	r27, r27
    2196:	ee 1f       	adc	r30, r30
    2198:	ff 1f       	adc	r31, r31
    219a:	a2 17       	cp	r26, r18
    219c:	b3 07       	cpc	r27, r19
    219e:	e4 07       	cpc	r30, r20
    21a0:	f5 07       	cpc	r31, r21
    21a2:	20 f0       	brcs	.+8      	; 0x21ac <__udivmodsi4_ep>
    21a4:	a2 1b       	sub	r26, r18
    21a6:	b3 0b       	sbc	r27, r19
    21a8:	e4 0b       	sbc	r30, r20
    21aa:	f5 0b       	sbc	r31, r21

000021ac <__udivmodsi4_ep>:
    21ac:	66 1f       	adc	r22, r22
    21ae:	77 1f       	adc	r23, r23
    21b0:	88 1f       	adc	r24, r24
    21b2:	99 1f       	adc	r25, r25
    21b4:	1a 94       	dec	r1
    21b6:	69 f7       	brne	.-38     	; 0x2192 <__udivmodsi4_loop>
    21b8:	60 95       	com	r22
    21ba:	70 95       	com	r23
    21bc:	80 95       	com	r24
    21be:	90 95       	com	r25
    21c0:	9b 01       	movw	r18, r22
    21c2:	ac 01       	movw	r20, r24
    21c4:	bd 01       	movw	r22, r26
    21c6:	cf 01       	movw	r24, r30
    21c8:	08 95       	ret

000021ca <__tablejump2__>:
    21ca:	ee 0f       	add	r30, r30
    21cc:	ff 1f       	adc	r31, r31
    21ce:	05 90       	lpm	r0, Z+
    21d0:	f4 91       	lpm	r31, Z
    21d2:	e0 2d       	mov	r30, r0
    21d4:	09 94       	ijmp

000021d6 <sprintf>:
    21d6:	ae e0       	ldi	r26, 0x0E	; 14
    21d8:	b0 e0       	ldi	r27, 0x00	; 0
    21da:	e1 ef       	ldi	r30, 0xF1	; 241
    21dc:	f0 e1       	ldi	r31, 0x10	; 16
    21de:	0c 94 ac 13 	jmp	0x2758	; 0x2758 <__prologue_saves__+0x1c>
    21e2:	0d 89       	ldd	r16, Y+21	; 0x15
    21e4:	1e 89       	ldd	r17, Y+22	; 0x16
    21e6:	86 e0       	ldi	r24, 0x06	; 6
    21e8:	8c 83       	std	Y+4, r24	; 0x04
    21ea:	1a 83       	std	Y+2, r17	; 0x02
    21ec:	09 83       	std	Y+1, r16	; 0x01
    21ee:	8f ef       	ldi	r24, 0xFF	; 255
    21f0:	9f e7       	ldi	r25, 0x7F	; 127
    21f2:	9e 83       	std	Y+6, r25	; 0x06
    21f4:	8d 83       	std	Y+5, r24	; 0x05
    21f6:	ae 01       	movw	r20, r28
    21f8:	47 5e       	subi	r20, 0xE7	; 231
    21fa:	5f 4f       	sbci	r21, 0xFF	; 255
    21fc:	6f 89       	ldd	r22, Y+23	; 0x17
    21fe:	78 8d       	ldd	r23, Y+24	; 0x18
    2200:	ce 01       	movw	r24, r28
    2202:	01 96       	adiw	r24, 0x01	; 1
    2204:	0e 94 0d 11 	call	0x221a	; 0x221a <vfprintf>
    2208:	ef 81       	ldd	r30, Y+7	; 0x07
    220a:	f8 85       	ldd	r31, Y+8	; 0x08
    220c:	e0 0f       	add	r30, r16
    220e:	f1 1f       	adc	r31, r17
    2210:	10 82       	st	Z, r1
    2212:	2e 96       	adiw	r28, 0x0e	; 14
    2214:	e4 e0       	ldi	r30, 0x04	; 4
    2216:	0c 94 c8 13 	jmp	0x2790	; 0x2790 <__epilogue_restores__+0x1c>

0000221a <vfprintf>:
    221a:	ab e0       	ldi	r26, 0x0B	; 11
    221c:	b0 e0       	ldi	r27, 0x00	; 0
    221e:	e3 e1       	ldi	r30, 0x13	; 19
    2220:	f1 e1       	ldi	r31, 0x11	; 17
    2222:	0c 94 9e 13 	jmp	0x273c	; 0x273c <__prologue_saves__>
    2226:	6c 01       	movw	r12, r24
    2228:	7b 01       	movw	r14, r22
    222a:	8a 01       	movw	r16, r20
    222c:	fc 01       	movw	r30, r24
    222e:	17 82       	std	Z+7, r1	; 0x07
    2230:	16 82       	std	Z+6, r1	; 0x06
    2232:	83 81       	ldd	r24, Z+3	; 0x03
    2234:	81 ff       	sbrs	r24, 1
    2236:	cc c1       	rjmp	.+920    	; 0x25d0 <vfprintf+0x3b6>
    2238:	ce 01       	movw	r24, r28
    223a:	01 96       	adiw	r24, 0x01	; 1
    223c:	3c 01       	movw	r6, r24
    223e:	f6 01       	movw	r30, r12
    2240:	93 81       	ldd	r25, Z+3	; 0x03
    2242:	f7 01       	movw	r30, r14
    2244:	93 fd       	sbrc	r25, 3
    2246:	85 91       	lpm	r24, Z+
    2248:	93 ff       	sbrs	r25, 3
    224a:	81 91       	ld	r24, Z+
    224c:	7f 01       	movw	r14, r30
    224e:	88 23       	and	r24, r24
    2250:	09 f4       	brne	.+2      	; 0x2254 <vfprintf+0x3a>
    2252:	ba c1       	rjmp	.+884    	; 0x25c8 <vfprintf+0x3ae>
    2254:	85 32       	cpi	r24, 0x25	; 37
    2256:	39 f4       	brne	.+14     	; 0x2266 <vfprintf+0x4c>
    2258:	93 fd       	sbrc	r25, 3
    225a:	85 91       	lpm	r24, Z+
    225c:	93 ff       	sbrs	r25, 3
    225e:	81 91       	ld	r24, Z+
    2260:	7f 01       	movw	r14, r30
    2262:	85 32       	cpi	r24, 0x25	; 37
    2264:	29 f4       	brne	.+10     	; 0x2270 <vfprintf+0x56>
    2266:	b6 01       	movw	r22, r12
    2268:	90 e0       	ldi	r25, 0x00	; 0
    226a:	0e 94 04 13 	call	0x2608	; 0x2608 <fputc>
    226e:	e7 cf       	rjmp	.-50     	; 0x223e <vfprintf+0x24>
    2270:	91 2c       	mov	r9, r1
    2272:	21 2c       	mov	r2, r1
    2274:	31 2c       	mov	r3, r1
    2276:	ff e1       	ldi	r31, 0x1F	; 31
    2278:	f3 15       	cp	r31, r3
    227a:	d8 f0       	brcs	.+54     	; 0x22b2 <vfprintf+0x98>
    227c:	8b 32       	cpi	r24, 0x2B	; 43
    227e:	79 f0       	breq	.+30     	; 0x229e <vfprintf+0x84>
    2280:	38 f4       	brcc	.+14     	; 0x2290 <vfprintf+0x76>
    2282:	80 32       	cpi	r24, 0x20	; 32
    2284:	79 f0       	breq	.+30     	; 0x22a4 <vfprintf+0x8a>
    2286:	83 32       	cpi	r24, 0x23	; 35
    2288:	a1 f4       	brne	.+40     	; 0x22b2 <vfprintf+0x98>
    228a:	23 2d       	mov	r18, r3
    228c:	20 61       	ori	r18, 0x10	; 16
    228e:	1d c0       	rjmp	.+58     	; 0x22ca <vfprintf+0xb0>
    2290:	8d 32       	cpi	r24, 0x2D	; 45
    2292:	61 f0       	breq	.+24     	; 0x22ac <vfprintf+0x92>
    2294:	80 33       	cpi	r24, 0x30	; 48
    2296:	69 f4       	brne	.+26     	; 0x22b2 <vfprintf+0x98>
    2298:	23 2d       	mov	r18, r3
    229a:	21 60       	ori	r18, 0x01	; 1
    229c:	16 c0       	rjmp	.+44     	; 0x22ca <vfprintf+0xb0>
    229e:	83 2d       	mov	r24, r3
    22a0:	82 60       	ori	r24, 0x02	; 2
    22a2:	38 2e       	mov	r3, r24
    22a4:	e3 2d       	mov	r30, r3
    22a6:	e4 60       	ori	r30, 0x04	; 4
    22a8:	3e 2e       	mov	r3, r30
    22aa:	2a c0       	rjmp	.+84     	; 0x2300 <vfprintf+0xe6>
    22ac:	f3 2d       	mov	r31, r3
    22ae:	f8 60       	ori	r31, 0x08	; 8
    22b0:	1d c0       	rjmp	.+58     	; 0x22ec <vfprintf+0xd2>
    22b2:	37 fc       	sbrc	r3, 7
    22b4:	2d c0       	rjmp	.+90     	; 0x2310 <vfprintf+0xf6>
    22b6:	20 ed       	ldi	r18, 0xD0	; 208
    22b8:	28 0f       	add	r18, r24
    22ba:	2a 30       	cpi	r18, 0x0A	; 10
    22bc:	40 f0       	brcs	.+16     	; 0x22ce <vfprintf+0xb4>
    22be:	8e 32       	cpi	r24, 0x2E	; 46
    22c0:	b9 f4       	brne	.+46     	; 0x22f0 <vfprintf+0xd6>
    22c2:	36 fc       	sbrc	r3, 6
    22c4:	81 c1       	rjmp	.+770    	; 0x25c8 <vfprintf+0x3ae>
    22c6:	23 2d       	mov	r18, r3
    22c8:	20 64       	ori	r18, 0x40	; 64
    22ca:	32 2e       	mov	r3, r18
    22cc:	19 c0       	rjmp	.+50     	; 0x2300 <vfprintf+0xe6>
    22ce:	36 fe       	sbrs	r3, 6
    22d0:	06 c0       	rjmp	.+12     	; 0x22de <vfprintf+0xc4>
    22d2:	8a e0       	ldi	r24, 0x0A	; 10
    22d4:	98 9e       	mul	r9, r24
    22d6:	20 0d       	add	r18, r0
    22d8:	11 24       	eor	r1, r1
    22da:	92 2e       	mov	r9, r18
    22dc:	11 c0       	rjmp	.+34     	; 0x2300 <vfprintf+0xe6>
    22de:	ea e0       	ldi	r30, 0x0A	; 10
    22e0:	2e 9e       	mul	r2, r30
    22e2:	20 0d       	add	r18, r0
    22e4:	11 24       	eor	r1, r1
    22e6:	22 2e       	mov	r2, r18
    22e8:	f3 2d       	mov	r31, r3
    22ea:	f0 62       	ori	r31, 0x20	; 32
    22ec:	3f 2e       	mov	r3, r31
    22ee:	08 c0       	rjmp	.+16     	; 0x2300 <vfprintf+0xe6>
    22f0:	8c 36       	cpi	r24, 0x6C	; 108
    22f2:	21 f4       	brne	.+8      	; 0x22fc <vfprintf+0xe2>
    22f4:	83 2d       	mov	r24, r3
    22f6:	80 68       	ori	r24, 0x80	; 128
    22f8:	38 2e       	mov	r3, r24
    22fa:	02 c0       	rjmp	.+4      	; 0x2300 <vfprintf+0xe6>
    22fc:	88 36       	cpi	r24, 0x68	; 104
    22fe:	41 f4       	brne	.+16     	; 0x2310 <vfprintf+0xf6>
    2300:	f7 01       	movw	r30, r14
    2302:	93 fd       	sbrc	r25, 3
    2304:	85 91       	lpm	r24, Z+
    2306:	93 ff       	sbrs	r25, 3
    2308:	81 91       	ld	r24, Z+
    230a:	7f 01       	movw	r14, r30
    230c:	81 11       	cpse	r24, r1
    230e:	b3 cf       	rjmp	.-154    	; 0x2276 <vfprintf+0x5c>
    2310:	98 2f       	mov	r25, r24
    2312:	9f 7d       	andi	r25, 0xDF	; 223
    2314:	95 54       	subi	r25, 0x45	; 69
    2316:	93 30       	cpi	r25, 0x03	; 3
    2318:	28 f4       	brcc	.+10     	; 0x2324 <vfprintf+0x10a>
    231a:	0c 5f       	subi	r16, 0xFC	; 252
    231c:	1f 4f       	sbci	r17, 0xFF	; 255
    231e:	9f e3       	ldi	r25, 0x3F	; 63
    2320:	99 83       	std	Y+1, r25	; 0x01
    2322:	0d c0       	rjmp	.+26     	; 0x233e <vfprintf+0x124>
    2324:	83 36       	cpi	r24, 0x63	; 99
    2326:	31 f0       	breq	.+12     	; 0x2334 <vfprintf+0x11a>
    2328:	83 37       	cpi	r24, 0x73	; 115
    232a:	71 f0       	breq	.+28     	; 0x2348 <vfprintf+0x12e>
    232c:	83 35       	cpi	r24, 0x53	; 83
    232e:	09 f0       	breq	.+2      	; 0x2332 <vfprintf+0x118>
    2330:	59 c0       	rjmp	.+178    	; 0x23e4 <vfprintf+0x1ca>
    2332:	21 c0       	rjmp	.+66     	; 0x2376 <vfprintf+0x15c>
    2334:	f8 01       	movw	r30, r16
    2336:	80 81       	ld	r24, Z
    2338:	89 83       	std	Y+1, r24	; 0x01
    233a:	0e 5f       	subi	r16, 0xFE	; 254
    233c:	1f 4f       	sbci	r17, 0xFF	; 255
    233e:	88 24       	eor	r8, r8
    2340:	83 94       	inc	r8
    2342:	91 2c       	mov	r9, r1
    2344:	53 01       	movw	r10, r6
    2346:	13 c0       	rjmp	.+38     	; 0x236e <vfprintf+0x154>
    2348:	28 01       	movw	r4, r16
    234a:	f2 e0       	ldi	r31, 0x02	; 2
    234c:	4f 0e       	add	r4, r31
    234e:	51 1c       	adc	r5, r1
    2350:	f8 01       	movw	r30, r16
    2352:	a0 80       	ld	r10, Z
    2354:	b1 80       	ldd	r11, Z+1	; 0x01
    2356:	36 fe       	sbrs	r3, 6
    2358:	03 c0       	rjmp	.+6      	; 0x2360 <vfprintf+0x146>
    235a:	69 2d       	mov	r22, r9
    235c:	70 e0       	ldi	r23, 0x00	; 0
    235e:	02 c0       	rjmp	.+4      	; 0x2364 <vfprintf+0x14a>
    2360:	6f ef       	ldi	r22, 0xFF	; 255
    2362:	7f ef       	ldi	r23, 0xFF	; 255
    2364:	c5 01       	movw	r24, r10
    2366:	0e 94 f9 12 	call	0x25f2	; 0x25f2 <strnlen>
    236a:	4c 01       	movw	r8, r24
    236c:	82 01       	movw	r16, r4
    236e:	f3 2d       	mov	r31, r3
    2370:	ff 77       	andi	r31, 0x7F	; 127
    2372:	3f 2e       	mov	r3, r31
    2374:	16 c0       	rjmp	.+44     	; 0x23a2 <vfprintf+0x188>
    2376:	28 01       	movw	r4, r16
    2378:	22 e0       	ldi	r18, 0x02	; 2
    237a:	42 0e       	add	r4, r18
    237c:	51 1c       	adc	r5, r1
    237e:	f8 01       	movw	r30, r16
    2380:	a0 80       	ld	r10, Z
    2382:	b1 80       	ldd	r11, Z+1	; 0x01
    2384:	36 fe       	sbrs	r3, 6
    2386:	03 c0       	rjmp	.+6      	; 0x238e <vfprintf+0x174>
    2388:	69 2d       	mov	r22, r9
    238a:	70 e0       	ldi	r23, 0x00	; 0
    238c:	02 c0       	rjmp	.+4      	; 0x2392 <vfprintf+0x178>
    238e:	6f ef       	ldi	r22, 0xFF	; 255
    2390:	7f ef       	ldi	r23, 0xFF	; 255
    2392:	c5 01       	movw	r24, r10
    2394:	0e 94 ee 12 	call	0x25dc	; 0x25dc <strnlen_P>
    2398:	4c 01       	movw	r8, r24
    239a:	f3 2d       	mov	r31, r3
    239c:	f0 68       	ori	r31, 0x80	; 128
    239e:	3f 2e       	mov	r3, r31
    23a0:	82 01       	movw	r16, r4
    23a2:	33 fc       	sbrc	r3, 3
    23a4:	1b c0       	rjmp	.+54     	; 0x23dc <vfprintf+0x1c2>
    23a6:	82 2d       	mov	r24, r2
    23a8:	90 e0       	ldi	r25, 0x00	; 0
    23aa:	88 16       	cp	r8, r24
    23ac:	99 06       	cpc	r9, r25
    23ae:	b0 f4       	brcc	.+44     	; 0x23dc <vfprintf+0x1c2>
    23b0:	b6 01       	movw	r22, r12
    23b2:	80 e2       	ldi	r24, 0x20	; 32
    23b4:	90 e0       	ldi	r25, 0x00	; 0
    23b6:	0e 94 04 13 	call	0x2608	; 0x2608 <fputc>
    23ba:	2a 94       	dec	r2
    23bc:	f4 cf       	rjmp	.-24     	; 0x23a6 <vfprintf+0x18c>
    23be:	f5 01       	movw	r30, r10
    23c0:	37 fc       	sbrc	r3, 7
    23c2:	85 91       	lpm	r24, Z+
    23c4:	37 fe       	sbrs	r3, 7
    23c6:	81 91       	ld	r24, Z+
    23c8:	5f 01       	movw	r10, r30
    23ca:	b6 01       	movw	r22, r12
    23cc:	90 e0       	ldi	r25, 0x00	; 0
    23ce:	0e 94 04 13 	call	0x2608	; 0x2608 <fputc>
    23d2:	21 10       	cpse	r2, r1
    23d4:	2a 94       	dec	r2
    23d6:	21 e0       	ldi	r18, 0x01	; 1
    23d8:	82 1a       	sub	r8, r18
    23da:	91 08       	sbc	r9, r1
    23dc:	81 14       	cp	r8, r1
    23de:	91 04       	cpc	r9, r1
    23e0:	71 f7       	brne	.-36     	; 0x23be <vfprintf+0x1a4>
    23e2:	e8 c0       	rjmp	.+464    	; 0x25b4 <vfprintf+0x39a>
    23e4:	84 36       	cpi	r24, 0x64	; 100
    23e6:	11 f0       	breq	.+4      	; 0x23ec <vfprintf+0x1d2>
    23e8:	89 36       	cpi	r24, 0x69	; 105
    23ea:	41 f5       	brne	.+80     	; 0x243c <vfprintf+0x222>
    23ec:	f8 01       	movw	r30, r16
    23ee:	37 fe       	sbrs	r3, 7
    23f0:	07 c0       	rjmp	.+14     	; 0x2400 <vfprintf+0x1e6>
    23f2:	60 81       	ld	r22, Z
    23f4:	71 81       	ldd	r23, Z+1	; 0x01
    23f6:	82 81       	ldd	r24, Z+2	; 0x02
    23f8:	93 81       	ldd	r25, Z+3	; 0x03
    23fa:	0c 5f       	subi	r16, 0xFC	; 252
    23fc:	1f 4f       	sbci	r17, 0xFF	; 255
    23fe:	08 c0       	rjmp	.+16     	; 0x2410 <vfprintf+0x1f6>
    2400:	60 81       	ld	r22, Z
    2402:	71 81       	ldd	r23, Z+1	; 0x01
    2404:	07 2e       	mov	r0, r23
    2406:	00 0c       	add	r0, r0
    2408:	88 0b       	sbc	r24, r24
    240a:	99 0b       	sbc	r25, r25
    240c:	0e 5f       	subi	r16, 0xFE	; 254
    240e:	1f 4f       	sbci	r17, 0xFF	; 255
    2410:	f3 2d       	mov	r31, r3
    2412:	ff 76       	andi	r31, 0x6F	; 111
    2414:	3f 2e       	mov	r3, r31
    2416:	97 ff       	sbrs	r25, 7
    2418:	09 c0       	rjmp	.+18     	; 0x242c <vfprintf+0x212>
    241a:	90 95       	com	r25
    241c:	80 95       	com	r24
    241e:	70 95       	com	r23
    2420:	61 95       	neg	r22
    2422:	7f 4f       	sbci	r23, 0xFF	; 255
    2424:	8f 4f       	sbci	r24, 0xFF	; 255
    2426:	9f 4f       	sbci	r25, 0xFF	; 255
    2428:	f0 68       	ori	r31, 0x80	; 128
    242a:	3f 2e       	mov	r3, r31
    242c:	2a e0       	ldi	r18, 0x0A	; 10
    242e:	30 e0       	ldi	r19, 0x00	; 0
    2430:	a3 01       	movw	r20, r6
    2432:	0e 94 40 13 	call	0x2680	; 0x2680 <__ultoa_invert>
    2436:	88 2e       	mov	r8, r24
    2438:	86 18       	sub	r8, r6
    243a:	45 c0       	rjmp	.+138    	; 0x24c6 <vfprintf+0x2ac>
    243c:	85 37       	cpi	r24, 0x75	; 117
    243e:	31 f4       	brne	.+12     	; 0x244c <vfprintf+0x232>
    2440:	23 2d       	mov	r18, r3
    2442:	2f 7e       	andi	r18, 0xEF	; 239
    2444:	b2 2e       	mov	r11, r18
    2446:	2a e0       	ldi	r18, 0x0A	; 10
    2448:	30 e0       	ldi	r19, 0x00	; 0
    244a:	25 c0       	rjmp	.+74     	; 0x2496 <vfprintf+0x27c>
    244c:	93 2d       	mov	r25, r3
    244e:	99 7f       	andi	r25, 0xF9	; 249
    2450:	b9 2e       	mov	r11, r25
    2452:	8f 36       	cpi	r24, 0x6F	; 111
    2454:	c1 f0       	breq	.+48     	; 0x2486 <vfprintf+0x26c>
    2456:	18 f4       	brcc	.+6      	; 0x245e <vfprintf+0x244>
    2458:	88 35       	cpi	r24, 0x58	; 88
    245a:	79 f0       	breq	.+30     	; 0x247a <vfprintf+0x260>
    245c:	b5 c0       	rjmp	.+362    	; 0x25c8 <vfprintf+0x3ae>
    245e:	80 37       	cpi	r24, 0x70	; 112
    2460:	19 f0       	breq	.+6      	; 0x2468 <vfprintf+0x24e>
    2462:	88 37       	cpi	r24, 0x78	; 120
    2464:	21 f0       	breq	.+8      	; 0x246e <vfprintf+0x254>
    2466:	b0 c0       	rjmp	.+352    	; 0x25c8 <vfprintf+0x3ae>
    2468:	e9 2f       	mov	r30, r25
    246a:	e0 61       	ori	r30, 0x10	; 16
    246c:	be 2e       	mov	r11, r30
    246e:	b4 fe       	sbrs	r11, 4
    2470:	0d c0       	rjmp	.+26     	; 0x248c <vfprintf+0x272>
    2472:	fb 2d       	mov	r31, r11
    2474:	f4 60       	ori	r31, 0x04	; 4
    2476:	bf 2e       	mov	r11, r31
    2478:	09 c0       	rjmp	.+18     	; 0x248c <vfprintf+0x272>
    247a:	34 fe       	sbrs	r3, 4
    247c:	0a c0       	rjmp	.+20     	; 0x2492 <vfprintf+0x278>
    247e:	29 2f       	mov	r18, r25
    2480:	26 60       	ori	r18, 0x06	; 6
    2482:	b2 2e       	mov	r11, r18
    2484:	06 c0       	rjmp	.+12     	; 0x2492 <vfprintf+0x278>
    2486:	28 e0       	ldi	r18, 0x08	; 8
    2488:	30 e0       	ldi	r19, 0x00	; 0
    248a:	05 c0       	rjmp	.+10     	; 0x2496 <vfprintf+0x27c>
    248c:	20 e1       	ldi	r18, 0x10	; 16
    248e:	30 e0       	ldi	r19, 0x00	; 0
    2490:	02 c0       	rjmp	.+4      	; 0x2496 <vfprintf+0x27c>
    2492:	20 e1       	ldi	r18, 0x10	; 16
    2494:	32 e0       	ldi	r19, 0x02	; 2
    2496:	f8 01       	movw	r30, r16
    2498:	b7 fe       	sbrs	r11, 7
    249a:	07 c0       	rjmp	.+14     	; 0x24aa <vfprintf+0x290>
    249c:	60 81       	ld	r22, Z
    249e:	71 81       	ldd	r23, Z+1	; 0x01
    24a0:	82 81       	ldd	r24, Z+2	; 0x02
    24a2:	93 81       	ldd	r25, Z+3	; 0x03
    24a4:	0c 5f       	subi	r16, 0xFC	; 252
    24a6:	1f 4f       	sbci	r17, 0xFF	; 255
    24a8:	06 c0       	rjmp	.+12     	; 0x24b6 <vfprintf+0x29c>
    24aa:	60 81       	ld	r22, Z
    24ac:	71 81       	ldd	r23, Z+1	; 0x01
    24ae:	80 e0       	ldi	r24, 0x00	; 0
    24b0:	90 e0       	ldi	r25, 0x00	; 0
    24b2:	0e 5f       	subi	r16, 0xFE	; 254
    24b4:	1f 4f       	sbci	r17, 0xFF	; 255
    24b6:	a3 01       	movw	r20, r6
    24b8:	0e 94 40 13 	call	0x2680	; 0x2680 <__ultoa_invert>
    24bc:	88 2e       	mov	r8, r24
    24be:	86 18       	sub	r8, r6
    24c0:	fb 2d       	mov	r31, r11
    24c2:	ff 77       	andi	r31, 0x7F	; 127
    24c4:	3f 2e       	mov	r3, r31
    24c6:	36 fe       	sbrs	r3, 6
    24c8:	0d c0       	rjmp	.+26     	; 0x24e4 <vfprintf+0x2ca>
    24ca:	23 2d       	mov	r18, r3
    24cc:	2e 7f       	andi	r18, 0xFE	; 254
    24ce:	a2 2e       	mov	r10, r18
    24d0:	89 14       	cp	r8, r9
    24d2:	58 f4       	brcc	.+22     	; 0x24ea <vfprintf+0x2d0>
    24d4:	34 fe       	sbrs	r3, 4
    24d6:	0b c0       	rjmp	.+22     	; 0x24ee <vfprintf+0x2d4>
    24d8:	32 fc       	sbrc	r3, 2
    24da:	09 c0       	rjmp	.+18     	; 0x24ee <vfprintf+0x2d4>
    24dc:	83 2d       	mov	r24, r3
    24de:	8e 7e       	andi	r24, 0xEE	; 238
    24e0:	a8 2e       	mov	r10, r24
    24e2:	05 c0       	rjmp	.+10     	; 0x24ee <vfprintf+0x2d4>
    24e4:	b8 2c       	mov	r11, r8
    24e6:	a3 2c       	mov	r10, r3
    24e8:	03 c0       	rjmp	.+6      	; 0x24f0 <vfprintf+0x2d6>
    24ea:	b8 2c       	mov	r11, r8
    24ec:	01 c0       	rjmp	.+2      	; 0x24f0 <vfprintf+0x2d6>
    24ee:	b9 2c       	mov	r11, r9
    24f0:	a4 fe       	sbrs	r10, 4
    24f2:	0f c0       	rjmp	.+30     	; 0x2512 <vfprintf+0x2f8>
    24f4:	fe 01       	movw	r30, r28
    24f6:	e8 0d       	add	r30, r8
    24f8:	f1 1d       	adc	r31, r1
    24fa:	80 81       	ld	r24, Z
    24fc:	80 33       	cpi	r24, 0x30	; 48
    24fe:	21 f4       	brne	.+8      	; 0x2508 <vfprintf+0x2ee>
    2500:	9a 2d       	mov	r25, r10
    2502:	99 7e       	andi	r25, 0xE9	; 233
    2504:	a9 2e       	mov	r10, r25
    2506:	09 c0       	rjmp	.+18     	; 0x251a <vfprintf+0x300>
    2508:	a2 fe       	sbrs	r10, 2
    250a:	06 c0       	rjmp	.+12     	; 0x2518 <vfprintf+0x2fe>
    250c:	b3 94       	inc	r11
    250e:	b3 94       	inc	r11
    2510:	04 c0       	rjmp	.+8      	; 0x251a <vfprintf+0x300>
    2512:	8a 2d       	mov	r24, r10
    2514:	86 78       	andi	r24, 0x86	; 134
    2516:	09 f0       	breq	.+2      	; 0x251a <vfprintf+0x300>
    2518:	b3 94       	inc	r11
    251a:	a3 fc       	sbrc	r10, 3
    251c:	11 c0       	rjmp	.+34     	; 0x2540 <vfprintf+0x326>
    251e:	a0 fe       	sbrs	r10, 0
    2520:	06 c0       	rjmp	.+12     	; 0x252e <vfprintf+0x314>
    2522:	b2 14       	cp	r11, r2
    2524:	88 f4       	brcc	.+34     	; 0x2548 <vfprintf+0x32e>
    2526:	28 0c       	add	r2, r8
    2528:	92 2c       	mov	r9, r2
    252a:	9b 18       	sub	r9, r11
    252c:	0e c0       	rjmp	.+28     	; 0x254a <vfprintf+0x330>
    252e:	b2 14       	cp	r11, r2
    2530:	60 f4       	brcc	.+24     	; 0x254a <vfprintf+0x330>
    2532:	b6 01       	movw	r22, r12
    2534:	80 e2       	ldi	r24, 0x20	; 32
    2536:	90 e0       	ldi	r25, 0x00	; 0
    2538:	0e 94 04 13 	call	0x2608	; 0x2608 <fputc>
    253c:	b3 94       	inc	r11
    253e:	f7 cf       	rjmp	.-18     	; 0x252e <vfprintf+0x314>
    2540:	b2 14       	cp	r11, r2
    2542:	18 f4       	brcc	.+6      	; 0x254a <vfprintf+0x330>
    2544:	2b 18       	sub	r2, r11
    2546:	02 c0       	rjmp	.+4      	; 0x254c <vfprintf+0x332>
    2548:	98 2c       	mov	r9, r8
    254a:	21 2c       	mov	r2, r1
    254c:	a4 fe       	sbrs	r10, 4
    254e:	10 c0       	rjmp	.+32     	; 0x2570 <vfprintf+0x356>
    2550:	b6 01       	movw	r22, r12
    2552:	80 e3       	ldi	r24, 0x30	; 48
    2554:	90 e0       	ldi	r25, 0x00	; 0
    2556:	0e 94 04 13 	call	0x2608	; 0x2608 <fputc>
    255a:	a2 fe       	sbrs	r10, 2
    255c:	17 c0       	rjmp	.+46     	; 0x258c <vfprintf+0x372>
    255e:	a1 fc       	sbrc	r10, 1
    2560:	03 c0       	rjmp	.+6      	; 0x2568 <vfprintf+0x34e>
    2562:	88 e7       	ldi	r24, 0x78	; 120
    2564:	90 e0       	ldi	r25, 0x00	; 0
    2566:	02 c0       	rjmp	.+4      	; 0x256c <vfprintf+0x352>
    2568:	88 e5       	ldi	r24, 0x58	; 88
    256a:	90 e0       	ldi	r25, 0x00	; 0
    256c:	b6 01       	movw	r22, r12
    256e:	0c c0       	rjmp	.+24     	; 0x2588 <vfprintf+0x36e>
    2570:	8a 2d       	mov	r24, r10
    2572:	86 78       	andi	r24, 0x86	; 134
    2574:	59 f0       	breq	.+22     	; 0x258c <vfprintf+0x372>
    2576:	a1 fe       	sbrs	r10, 1
    2578:	02 c0       	rjmp	.+4      	; 0x257e <vfprintf+0x364>
    257a:	8b e2       	ldi	r24, 0x2B	; 43
    257c:	01 c0       	rjmp	.+2      	; 0x2580 <vfprintf+0x366>
    257e:	80 e2       	ldi	r24, 0x20	; 32
    2580:	a7 fc       	sbrc	r10, 7
    2582:	8d e2       	ldi	r24, 0x2D	; 45
    2584:	b6 01       	movw	r22, r12
    2586:	90 e0       	ldi	r25, 0x00	; 0
    2588:	0e 94 04 13 	call	0x2608	; 0x2608 <fputc>
    258c:	89 14       	cp	r8, r9
    258e:	38 f4       	brcc	.+14     	; 0x259e <vfprintf+0x384>
    2590:	b6 01       	movw	r22, r12
    2592:	80 e3       	ldi	r24, 0x30	; 48
    2594:	90 e0       	ldi	r25, 0x00	; 0
    2596:	0e 94 04 13 	call	0x2608	; 0x2608 <fputc>
    259a:	9a 94       	dec	r9
    259c:	f7 cf       	rjmp	.-18     	; 0x258c <vfprintf+0x372>
    259e:	8a 94       	dec	r8
    25a0:	f3 01       	movw	r30, r6
    25a2:	e8 0d       	add	r30, r8
    25a4:	f1 1d       	adc	r31, r1
    25a6:	80 81       	ld	r24, Z
    25a8:	b6 01       	movw	r22, r12
    25aa:	90 e0       	ldi	r25, 0x00	; 0
    25ac:	0e 94 04 13 	call	0x2608	; 0x2608 <fputc>
    25b0:	81 10       	cpse	r8, r1
    25b2:	f5 cf       	rjmp	.-22     	; 0x259e <vfprintf+0x384>
    25b4:	22 20       	and	r2, r2
    25b6:	09 f4       	brne	.+2      	; 0x25ba <vfprintf+0x3a0>
    25b8:	42 ce       	rjmp	.-892    	; 0x223e <vfprintf+0x24>
    25ba:	b6 01       	movw	r22, r12
    25bc:	80 e2       	ldi	r24, 0x20	; 32
    25be:	90 e0       	ldi	r25, 0x00	; 0
    25c0:	0e 94 04 13 	call	0x2608	; 0x2608 <fputc>
    25c4:	2a 94       	dec	r2
    25c6:	f6 cf       	rjmp	.-20     	; 0x25b4 <vfprintf+0x39a>
    25c8:	f6 01       	movw	r30, r12
    25ca:	86 81       	ldd	r24, Z+6	; 0x06
    25cc:	97 81       	ldd	r25, Z+7	; 0x07
    25ce:	02 c0       	rjmp	.+4      	; 0x25d4 <vfprintf+0x3ba>
    25d0:	8f ef       	ldi	r24, 0xFF	; 255
    25d2:	9f ef       	ldi	r25, 0xFF	; 255
    25d4:	2b 96       	adiw	r28, 0x0b	; 11
    25d6:	e2 e1       	ldi	r30, 0x12	; 18
    25d8:	0c 94 ba 13 	jmp	0x2774	; 0x2774 <__epilogue_restores__>

000025dc <strnlen_P>:
    25dc:	fc 01       	movw	r30, r24
    25de:	05 90       	lpm	r0, Z+
    25e0:	61 50       	subi	r22, 0x01	; 1
    25e2:	70 40       	sbci	r23, 0x00	; 0
    25e4:	01 10       	cpse	r0, r1
    25e6:	d8 f7       	brcc	.-10     	; 0x25de <strnlen_P+0x2>
    25e8:	80 95       	com	r24
    25ea:	90 95       	com	r25
    25ec:	8e 0f       	add	r24, r30
    25ee:	9f 1f       	adc	r25, r31
    25f0:	08 95       	ret

000025f2 <strnlen>:
    25f2:	fc 01       	movw	r30, r24
    25f4:	61 50       	subi	r22, 0x01	; 1
    25f6:	70 40       	sbci	r23, 0x00	; 0
    25f8:	01 90       	ld	r0, Z+
    25fa:	01 10       	cpse	r0, r1
    25fc:	d8 f7       	brcc	.-10     	; 0x25f4 <strnlen+0x2>
    25fe:	80 95       	com	r24
    2600:	90 95       	com	r25
    2602:	8e 0f       	add	r24, r30
    2604:	9f 1f       	adc	r25, r31
    2606:	08 95       	ret

00002608 <fputc>:
    2608:	0f 93       	push	r16
    260a:	1f 93       	push	r17
    260c:	cf 93       	push	r28
    260e:	df 93       	push	r29
    2610:	fb 01       	movw	r30, r22
    2612:	23 81       	ldd	r18, Z+3	; 0x03
    2614:	21 fd       	sbrc	r18, 1
    2616:	03 c0       	rjmp	.+6      	; 0x261e <fputc+0x16>
    2618:	8f ef       	ldi	r24, 0xFF	; 255
    261a:	9f ef       	ldi	r25, 0xFF	; 255
    261c:	2c c0       	rjmp	.+88     	; 0x2676 <fputc+0x6e>
    261e:	22 ff       	sbrs	r18, 2
    2620:	16 c0       	rjmp	.+44     	; 0x264e <fputc+0x46>
    2622:	46 81       	ldd	r20, Z+6	; 0x06
    2624:	57 81       	ldd	r21, Z+7	; 0x07
    2626:	24 81       	ldd	r18, Z+4	; 0x04
    2628:	35 81       	ldd	r19, Z+5	; 0x05
    262a:	42 17       	cp	r20, r18
    262c:	53 07       	cpc	r21, r19
    262e:	44 f4       	brge	.+16     	; 0x2640 <fputc+0x38>
    2630:	a0 81       	ld	r26, Z
    2632:	b1 81       	ldd	r27, Z+1	; 0x01
    2634:	9d 01       	movw	r18, r26
    2636:	2f 5f       	subi	r18, 0xFF	; 255
    2638:	3f 4f       	sbci	r19, 0xFF	; 255
    263a:	31 83       	std	Z+1, r19	; 0x01
    263c:	20 83       	st	Z, r18
    263e:	8c 93       	st	X, r24
    2640:	26 81       	ldd	r18, Z+6	; 0x06
    2642:	37 81       	ldd	r19, Z+7	; 0x07
    2644:	2f 5f       	subi	r18, 0xFF	; 255
    2646:	3f 4f       	sbci	r19, 0xFF	; 255
    2648:	37 83       	std	Z+7, r19	; 0x07
    264a:	26 83       	std	Z+6, r18	; 0x06
    264c:	14 c0       	rjmp	.+40     	; 0x2676 <fputc+0x6e>
    264e:	8b 01       	movw	r16, r22
    2650:	ec 01       	movw	r28, r24
    2652:	fb 01       	movw	r30, r22
    2654:	00 84       	ldd	r0, Z+8	; 0x08
    2656:	f1 85       	ldd	r31, Z+9	; 0x09
    2658:	e0 2d       	mov	r30, r0
    265a:	09 95       	icall
    265c:	89 2b       	or	r24, r25
    265e:	e1 f6       	brne	.-72     	; 0x2618 <fputc+0x10>
    2660:	d8 01       	movw	r26, r16
    2662:	16 96       	adiw	r26, 0x06	; 6
    2664:	8d 91       	ld	r24, X+
    2666:	9c 91       	ld	r25, X
    2668:	17 97       	sbiw	r26, 0x07	; 7
    266a:	01 96       	adiw	r24, 0x01	; 1
    266c:	17 96       	adiw	r26, 0x07	; 7
    266e:	9c 93       	st	X, r25
    2670:	8e 93       	st	-X, r24
    2672:	16 97       	sbiw	r26, 0x06	; 6
    2674:	ce 01       	movw	r24, r28
    2676:	df 91       	pop	r29
    2678:	cf 91       	pop	r28
    267a:	1f 91       	pop	r17
    267c:	0f 91       	pop	r16
    267e:	08 95       	ret

00002680 <__ultoa_invert>:
    2680:	fa 01       	movw	r30, r20
    2682:	aa 27       	eor	r26, r26
    2684:	28 30       	cpi	r18, 0x08	; 8
    2686:	51 f1       	breq	.+84     	; 0x26dc <__ultoa_invert+0x5c>
    2688:	20 31       	cpi	r18, 0x10	; 16
    268a:	81 f1       	breq	.+96     	; 0x26ec <__ultoa_invert+0x6c>
    268c:	e8 94       	clt
    268e:	6f 93       	push	r22
    2690:	6e 7f       	andi	r22, 0xFE	; 254
    2692:	6e 5f       	subi	r22, 0xFE	; 254
    2694:	7f 4f       	sbci	r23, 0xFF	; 255
    2696:	8f 4f       	sbci	r24, 0xFF	; 255
    2698:	9f 4f       	sbci	r25, 0xFF	; 255
    269a:	af 4f       	sbci	r26, 0xFF	; 255
    269c:	b1 e0       	ldi	r27, 0x01	; 1
    269e:	3e d0       	rcall	.+124    	; 0x271c <__ultoa_invert+0x9c>
    26a0:	b4 e0       	ldi	r27, 0x04	; 4
    26a2:	3c d0       	rcall	.+120    	; 0x271c <__ultoa_invert+0x9c>
    26a4:	67 0f       	add	r22, r23
    26a6:	78 1f       	adc	r23, r24
    26a8:	89 1f       	adc	r24, r25
    26aa:	9a 1f       	adc	r25, r26
    26ac:	a1 1d       	adc	r26, r1
    26ae:	68 0f       	add	r22, r24
    26b0:	79 1f       	adc	r23, r25
    26b2:	8a 1f       	adc	r24, r26
    26b4:	91 1d       	adc	r25, r1
    26b6:	a1 1d       	adc	r26, r1
    26b8:	6a 0f       	add	r22, r26
    26ba:	71 1d       	adc	r23, r1
    26bc:	81 1d       	adc	r24, r1
    26be:	91 1d       	adc	r25, r1
    26c0:	a1 1d       	adc	r26, r1
    26c2:	20 d0       	rcall	.+64     	; 0x2704 <__ultoa_invert+0x84>
    26c4:	09 f4       	brne	.+2      	; 0x26c8 <__ultoa_invert+0x48>
    26c6:	68 94       	set
    26c8:	3f 91       	pop	r19
    26ca:	2a e0       	ldi	r18, 0x0A	; 10
    26cc:	26 9f       	mul	r18, r22
    26ce:	11 24       	eor	r1, r1
    26d0:	30 19       	sub	r19, r0
    26d2:	30 5d       	subi	r19, 0xD0	; 208
    26d4:	31 93       	st	Z+, r19
    26d6:	de f6       	brtc	.-74     	; 0x268e <__ultoa_invert+0xe>
    26d8:	cf 01       	movw	r24, r30
    26da:	08 95       	ret
    26dc:	46 2f       	mov	r20, r22
    26de:	47 70       	andi	r20, 0x07	; 7
    26e0:	40 5d       	subi	r20, 0xD0	; 208
    26e2:	41 93       	st	Z+, r20
    26e4:	b3 e0       	ldi	r27, 0x03	; 3
    26e6:	0f d0       	rcall	.+30     	; 0x2706 <__ultoa_invert+0x86>
    26e8:	c9 f7       	brne	.-14     	; 0x26dc <__ultoa_invert+0x5c>
    26ea:	f6 cf       	rjmp	.-20     	; 0x26d8 <__ultoa_invert+0x58>
    26ec:	46 2f       	mov	r20, r22
    26ee:	4f 70       	andi	r20, 0x0F	; 15
    26f0:	40 5d       	subi	r20, 0xD0	; 208
    26f2:	4a 33       	cpi	r20, 0x3A	; 58
    26f4:	18 f0       	brcs	.+6      	; 0x26fc <__ultoa_invert+0x7c>
    26f6:	49 5d       	subi	r20, 0xD9	; 217
    26f8:	31 fd       	sbrc	r19, 1
    26fa:	40 52       	subi	r20, 0x20	; 32
    26fc:	41 93       	st	Z+, r20
    26fe:	02 d0       	rcall	.+4      	; 0x2704 <__ultoa_invert+0x84>
    2700:	a9 f7       	brne	.-22     	; 0x26ec <__ultoa_invert+0x6c>
    2702:	ea cf       	rjmp	.-44     	; 0x26d8 <__ultoa_invert+0x58>
    2704:	b4 e0       	ldi	r27, 0x04	; 4
    2706:	a6 95       	lsr	r26
    2708:	97 95       	ror	r25
    270a:	87 95       	ror	r24
    270c:	77 95       	ror	r23
    270e:	67 95       	ror	r22
    2710:	ba 95       	dec	r27
    2712:	c9 f7       	brne	.-14     	; 0x2706 <__ultoa_invert+0x86>
    2714:	00 97       	sbiw	r24, 0x00	; 0
    2716:	61 05       	cpc	r22, r1
    2718:	71 05       	cpc	r23, r1
    271a:	08 95       	ret
    271c:	9b 01       	movw	r18, r22
    271e:	ac 01       	movw	r20, r24
    2720:	0a 2e       	mov	r0, r26
    2722:	06 94       	lsr	r0
    2724:	57 95       	ror	r21
    2726:	47 95       	ror	r20
    2728:	37 95       	ror	r19
    272a:	27 95       	ror	r18
    272c:	ba 95       	dec	r27
    272e:	c9 f7       	brne	.-14     	; 0x2722 <__ultoa_invert+0xa2>
    2730:	62 0f       	add	r22, r18
    2732:	73 1f       	adc	r23, r19
    2734:	84 1f       	adc	r24, r20
    2736:	95 1f       	adc	r25, r21
    2738:	a0 1d       	adc	r26, r0
    273a:	08 95       	ret

0000273c <__prologue_saves__>:
    273c:	2f 92       	push	r2
    273e:	3f 92       	push	r3
    2740:	4f 92       	push	r4
    2742:	5f 92       	push	r5
    2744:	6f 92       	push	r6
    2746:	7f 92       	push	r7
    2748:	8f 92       	push	r8
    274a:	9f 92       	push	r9
    274c:	af 92       	push	r10
    274e:	bf 92       	push	r11
    2750:	cf 92       	push	r12
    2752:	df 92       	push	r13
    2754:	ef 92       	push	r14
    2756:	ff 92       	push	r15
    2758:	0f 93       	push	r16
    275a:	1f 93       	push	r17
    275c:	cf 93       	push	r28
    275e:	df 93       	push	r29
    2760:	cd b7       	in	r28, 0x3d	; 61
    2762:	de b7       	in	r29, 0x3e	; 62
    2764:	ca 1b       	sub	r28, r26
    2766:	db 0b       	sbc	r29, r27
    2768:	0f b6       	in	r0, 0x3f	; 63
    276a:	f8 94       	cli
    276c:	de bf       	out	0x3e, r29	; 62
    276e:	0f be       	out	0x3f, r0	; 63
    2770:	cd bf       	out	0x3d, r28	; 61
    2772:	09 94       	ijmp

00002774 <__epilogue_restores__>:
    2774:	2a 88       	ldd	r2, Y+18	; 0x12
    2776:	39 88       	ldd	r3, Y+17	; 0x11
    2778:	48 88       	ldd	r4, Y+16	; 0x10
    277a:	5f 84       	ldd	r5, Y+15	; 0x0f
    277c:	6e 84       	ldd	r6, Y+14	; 0x0e
    277e:	7d 84       	ldd	r7, Y+13	; 0x0d
    2780:	8c 84       	ldd	r8, Y+12	; 0x0c
    2782:	9b 84       	ldd	r9, Y+11	; 0x0b
    2784:	aa 84       	ldd	r10, Y+10	; 0x0a
    2786:	b9 84       	ldd	r11, Y+9	; 0x09
    2788:	c8 84       	ldd	r12, Y+8	; 0x08
    278a:	df 80       	ldd	r13, Y+7	; 0x07
    278c:	ee 80       	ldd	r14, Y+6	; 0x06
    278e:	fd 80       	ldd	r15, Y+5	; 0x05
    2790:	0c 81       	ldd	r16, Y+4	; 0x04
    2792:	1b 81       	ldd	r17, Y+3	; 0x03
    2794:	aa 81       	ldd	r26, Y+2	; 0x02
    2796:	b9 81       	ldd	r27, Y+1	; 0x01
    2798:	ce 0f       	add	r28, r30
    279a:	d1 1d       	adc	r29, r1
    279c:	0f b6       	in	r0, 0x3f	; 63
    279e:	f8 94       	cli
    27a0:	de bf       	out	0x3e, r29	; 62
    27a2:	0f be       	out	0x3f, r0	; 63
    27a4:	cd bf       	out	0x3d, r28	; 61
    27a6:	ed 01       	movw	r28, r26
    27a8:	08 95       	ret

000027aa <__do_global_dtors>:
    27aa:	10 e0       	ldi	r17, 0x00	; 0
    27ac:	c9 e5       	ldi	r28, 0x59	; 89
    27ae:	d0 e0       	ldi	r29, 0x00	; 0
    27b0:	04 c0       	rjmp	.+8      	; 0x27ba <__do_global_dtors+0x10>
    27b2:	fe 01       	movw	r30, r28
    27b4:	0e 94 e5 10 	call	0x21ca	; 0x21ca <__tablejump2__>
    27b8:	21 96       	adiw	r28, 0x01	; 1
    27ba:	ca 35       	cpi	r28, 0x5A	; 90
    27bc:	d1 07       	cpc	r29, r17
    27be:	c9 f7       	brne	.-14     	; 0x27b2 <__do_global_dtors+0x8>
    27c0:	f8 94       	cli

000027c2 <__stop_program>:
    27c2:	ff cf       	rjmp	.-2      	; 0x27c2 <__stop_program>
